Component: ARM Compiler 5.05 update 2 (build 169) Tool: armlink [4d0f33]

==============================================================================

Section Cross References

    startup_stm32f40_41xxx.o(STACK) refers (Special) to heapauxi.o(.text) for __use_two_region_memory
    startup_stm32f40_41xxx.o(HEAP) refers (Special) to heapauxi.o(.text) for __use_two_region_memory
    startup_stm32f40_41xxx.o(RESET) refers (Special) to heapauxi.o(.text) for __use_two_region_memory
    startup_stm32f40_41xxx.o(RESET) refers to startup_stm32f40_41xxx.o(STACK) for __initial_sp
    startup_stm32f40_41xxx.o(RESET) refers to startup_stm32f40_41xxx.o(.text) for Reset_Handler
    startup_stm32f40_41xxx.o(RESET) refers to i2s.o(i.DMA1_Stream4_IRQHandler) for DMA1_Stream4_IRQHandler
    startup_stm32f40_41xxx.o(RESET) refers to usmart.o(i.TIM4_IRQHandler) for TIM4_IRQHandler
    startup_stm32f40_41xxx.o(RESET) refers to usart.o(i.USART1_IRQHandler) for USART1_IRQHandler
    startup_stm32f40_41xxx.o(RESET) refers to sdio_sdcard.o(i.SDIO_IRQHandler) for SDIO_IRQHandler
    startup_stm32f40_41xxx.o(.text) refers (Special) to heapauxi.o(.text) for __use_two_region_memory
    startup_stm32f40_41xxx.o(.text) refers to __main.o(!!!main) for __main
    startup_stm32f40_41xxx.o(.text) refers to startup_stm32f40_41xxx.o(HEAP) for Heap_Mem
    startup_stm32f40_41xxx.o(.text) refers to startup_stm32f40_41xxx.o(STACK) for Stack_Mem
    test.o(i.main) refers to sys.o(i.Stm32_Clock_Init) for Stm32_Clock_Init
    test.o(i.main) refers to delay.o(i.delay_init) for delay_init
    test.o(i.main) refers to usart.o(i.uart_init) for uart_init
    test.o(i.main) refers to led.o(i.LED_Init) for LED_Init
    test.o(i.main) refers to ili93xx.o(i.LCD_Init) for LCD_Init
    test.o(i.main) refers to key.o(i.KEY_Init) for KEY_Init
    test.o(i.main) refers to w25qxx.o(i.W25QXX_Init) for W25QXX_Init
    test.o(i.main) refers to wm8978.o(i.WM8978_Init) for WM8978_Init
    test.o(i.main) refers to wm8978.o(i.WM8978_HPvol_Set) for WM8978_HPvol_Set
    test.o(i.main) refers to wm8978.o(i.WM8978_SPKvol_Set) for WM8978_SPKvol_Set
    test.o(i.main) refers to malloc.o(i.my_mem_init) for my_mem_init
    test.o(i.main) refers to exfuns.o(i.exfuns_init) for exfuns_init
    test.o(i.main) refers to ff.o(i.f_mount) for f_mount
    test.o(i.main) refers to ili93xx.o(i.LCD_ShowString) for LCD_ShowString
    test.o(i.main) refers to delay.o(i.delay_ms) for delay_ms
    test.o(i.main) refers to ili93xx.o(i.LCD_Fill) for LCD_Fill
    test.o(i.main) refers to fontupd.o(i.font_init) for font_init
    test.o(i.main) refers to text.o(i.Show_Str) for Show_Str
    test.o(i.main) refers to audioplay.o(i.audio_play) for audio_play
    test.o(i.main) refers to usmart_config.o(.data) for usmart_dev
    test.o(i.main) refers to exfuns.o(.bss) for fs
    test.o(i.main) refers to ili93xx.o(.data) for POINT_COLOR
    delay.o(i.delay_init) refers to delay.o(.data) for fac_us
    delay.o(i.delay_ms) refers to delay.o(i.delay_xms) for delay_xms
    delay.o(i.delay_us) refers to delay.o(.data) for fac_us
    delay.o(i.delay_xms) refers to delay.o(.data) for fac_ms
    sys.o(i.MY_NVIC_Init) refers to sys.o(i.MY_NVIC_PriorityGroupConfig) for MY_NVIC_PriorityGroupConfig
    sys.o(i.Stm32_Clock_Init) refers to sys.o(i.Sys_Clock_Set) for Sys_Clock_Set
    sys.o(i.Stm32_Clock_Init) refers to sys.o(i.MY_NVIC_SetVectorTable) for MY_NVIC_SetVectorTable
    sys.o(i.Sys_Standby) refers to sys.o(i.WFI_SET) for WFI_SET
    usart.o(.rev16_text) refers (Special) to use_no_semi_2.o(.text) for __use_no_semihosting
    usart.o(.revsh_text) refers (Special) to use_no_semi_2.o(.text) for __use_no_semihosting
    usart.o(i.USART1_IRQHandler) refers (Special) to use_no_semi_2.o(.text) for __use_no_semihosting
    usart.o(i.USART1_IRQHandler) refers to usart.o(.data) for USART_RX_STA
    usart.o(i.USART1_IRQHandler) refers to usart.o(.bss) for USART_RX_BUF
    usart.o(i._sys_exit) refers (Special) to use_no_semi_2.o(.text) for __use_no_semihosting
    usart.o(i.fputc) refers (Special) to use_no_semi_2.o(.text) for __use_no_semihosting
    usart.o(i.uart_init) refers (Special) to use_no_semi_2.o(.text) for __use_no_semihosting
    usart.o(i.uart_init) refers to sys.o(i.GPIO_Set) for GPIO_Set
    usart.o(i.uart_init) refers to sys.o(i.GPIO_AF_Set) for GPIO_AF_Set
    usart.o(i.uart_init) refers to sys.o(i.MY_NVIC_Init) for MY_NVIC_Init
    usart.o(.bss) refers (Special) to use_no_semi_2.o(.text) for __use_no_semihosting
    usart.o(.data) refers (Special) to use_no_semi_2.o(.text) for __use_no_semihosting
    led.o(i.LED_Init) refers to sys.o(i.GPIO_Set) for GPIO_Set
    ili93xx.o(i.LCD_Clear) refers to ili93xx.o(i.LCD_SetCursor) for LCD_SetCursor
    ili93xx.o(i.LCD_Clear) refers to ili93xx.o(i.LCD_WriteRAM_Prepare) for LCD_WriteRAM_Prepare
    ili93xx.o(i.LCD_Clear) refers to ili93xx.o(.bss) for lcddev
    ili93xx.o(i.LCD_Color_Fill) refers to ili93xx.o(i.LCD_SetCursor) for LCD_SetCursor
    ili93xx.o(i.LCD_Color_Fill) refers to ili93xx.o(i.LCD_WriteRAM_Prepare) for LCD_WriteRAM_Prepare
    ili93xx.o(i.LCD_DisplayOff) refers to ili93xx.o(i.LCD_WR_REG) for LCD_WR_REG
    ili93xx.o(i.LCD_DisplayOff) refers to ili93xx.o(i.LCD_WriteReg) for LCD_WriteReg
    ili93xx.o(i.LCD_DisplayOff) refers to ili93xx.o(.bss) for lcddev
    ili93xx.o(i.LCD_DisplayOn) refers to ili93xx.o(i.LCD_WR_REG) for LCD_WR_REG
    ili93xx.o(i.LCD_DisplayOn) refers to ili93xx.o(i.LCD_WriteReg) for LCD_WriteReg
    ili93xx.o(i.LCD_DisplayOn) refers to ili93xx.o(.bss) for lcddev
    ili93xx.o(i.LCD_Display_Dir) refers to ili93xx.o(i.LCD_Scan_Dir) for LCD_Scan_Dir
    ili93xx.o(i.LCD_Display_Dir) refers to ili93xx.o(.bss) for lcddev
    ili93xx.o(i.LCD_DrawLine) refers to ili93xx.o(i.LCD_DrawPoint) for LCD_DrawPoint
    ili93xx.o(i.LCD_DrawPoint) refers to ili93xx.o(i.LCD_SetCursor) for LCD_SetCursor
    ili93xx.o(i.LCD_DrawPoint) refers to ili93xx.o(i.LCD_WriteRAM_Prepare) for LCD_WriteRAM_Prepare
    ili93xx.o(i.LCD_DrawPoint) refers to ili93xx.o(.data) for POINT_COLOR
    ili93xx.o(i.LCD_DrawRectangle) refers to ili93xx.o(i.LCD_DrawLine) for LCD_DrawLine
    ili93xx.o(i.LCD_Draw_Circle) refers to ili93xx.o(i.LCD_DrawPoint) for LCD_DrawPoint
    ili93xx.o(i.LCD_Fast_DrawPoint) refers to ili93xx.o(i.LCD_WR_REG) for LCD_WR_REG
    ili93xx.o(i.LCD_Fast_DrawPoint) refers to ili93xx.o(i.LCD_WR_DATA) for LCD_WR_DATA
    ili93xx.o(i.LCD_Fast_DrawPoint) refers to ili93xx.o(i.LCD_WriteReg) for LCD_WriteReg
    ili93xx.o(i.LCD_Fast_DrawPoint) refers to ili93xx.o(.bss) for lcddev
    ili93xx.o(i.LCD_Fill) refers to ili93xx.o(i.LCD_SetCursor) for LCD_SetCursor
    ili93xx.o(i.LCD_Fill) refers to ili93xx.o(i.LCD_WriteRAM_Prepare) for LCD_WriteRAM_Prepare
    ili93xx.o(i.LCD_Fill) refers to ili93xx.o(.bss) for lcddev
    ili93xx.o(i.LCD_Init) refers to _printf_percent.o(.ARM.Collect$$_printf_percent$$00000000) for _printf_percent
    ili93xx.o(i.LCD_Init) refers to _printf_x.o(.ARM.Collect$$_printf_percent$$0000000C) for _printf_x
    ili93xx.o(i.LCD_Init) refers to _printf_hex_int.o(.text) for _printf_longlong_hex
    ili93xx.o(i.LCD_Init) refers to sys.o(i.GPIO_Set) for GPIO_Set
    ili93xx.o(i.LCD_Init) refers to sys.o(i.GPIO_AF_Set) for GPIO_AF_Set
    ili93xx.o(i.LCD_Init) refers to delay.o(i.delay_ms) for delay_ms
    ili93xx.o(i.LCD_Init) refers to ili93xx.o(i.LCD_WriteReg) for LCD_WriteReg
    ili93xx.o(i.LCD_Init) refers to ili93xx.o(i.LCD_ReadReg) for LCD_ReadReg
    ili93xx.o(i.LCD_Init) refers to ili93xx.o(i.LCD_WR_REG) for LCD_WR_REG
    ili93xx.o(i.LCD_Init) refers to ili93xx.o(i.LCD_RD_DATA) for LCD_RD_DATA
    ili93xx.o(i.LCD_Init) refers to ili93xx.o(.bss) for lcddev
    ili93xx.o(i.LCD_Init) refers to noretval__2printf.o(.text) for __2printf
    ili93xx.o(i.LCD_Init) refers to ili93xx.o(i.LCD_WR_DATA) for LCD_WR_DATA
    ili93xx.o(i.LCD_Init) refers to delay.o(i.delay_us) for delay_us
    ili93xx.o(i.LCD_Init) refers to ili93xx.o(i.LCD_SSD_BackLightSet) for LCD_SSD_BackLightSet
    ili93xx.o(i.LCD_Init) refers to ili93xx.o(i.LCD_Display_Dir) for LCD_Display_Dir
    ili93xx.o(i.LCD_Init) refers to ili93xx.o(i.LCD_Clear) for LCD_Clear
    ili93xx.o(i.LCD_ReadPoint) refers to ili93xx.o(i.LCD_SetCursor) for LCD_SetCursor
    ili93xx.o(i.LCD_ReadPoint) refers to ili93xx.o(i.LCD_WR_REG) for LCD_WR_REG
    ili93xx.o(i.LCD_ReadPoint) refers to ili93xx.o(i.opt_delay) for opt_delay
    ili93xx.o(i.LCD_ReadPoint) refers to ili93xx.o(i.LCD_RD_DATA) for LCD_RD_DATA
    ili93xx.o(i.LCD_ReadPoint) refers to ili93xx.o(i.LCD_BGR2RGB) for LCD_BGR2RGB
    ili93xx.o(i.LCD_ReadPoint) refers to ili93xx.o(.bss) for lcddev
    ili93xx.o(i.LCD_ReadReg) refers to ili93xx.o(i.LCD_WR_REG) for LCD_WR_REG
    ili93xx.o(i.LCD_ReadReg) refers to delay.o(i.delay_us) for delay_us
    ili93xx.o(i.LCD_ReadReg) refers to ili93xx.o(i.LCD_RD_DATA) for LCD_RD_DATA
    ili93xx.o(i.LCD_SSD_BackLightSet) refers to ili93xx.o(i.LCD_WR_REG) for LCD_WR_REG
    ili93xx.o(i.LCD_SSD_BackLightSet) refers to ili93xx.o(i.LCD_WR_DATA) for LCD_WR_DATA
    ili93xx.o(i.LCD_SSD_BackLightSet) refers to dflt_clz.o(x$fpl$dfltu) for __aeabi_ui2d
    ili93xx.o(i.LCD_SSD_BackLightSet) refers to dmul.o(x$fpl$dmul) for __aeabi_dmul
    ili93xx.o(i.LCD_SSD_BackLightSet) refers to dfixu.o(x$fpl$dfixu) for __aeabi_d2uiz
    ili93xx.o(i.LCD_Scan_Dir) refers to ili93xx.o(i.LCD_WriteReg) for LCD_WriteReg
    ili93xx.o(i.LCD_Scan_Dir) refers to ili93xx.o(i.LCD_WR_REG) for LCD_WR_REG
    ili93xx.o(i.LCD_Scan_Dir) refers to ili93xx.o(i.LCD_WR_DATA) for LCD_WR_DATA
    ili93xx.o(i.LCD_Scan_Dir) refers to ili93xx.o(.bss) for lcddev
    ili93xx.o(i.LCD_SetCursor) refers to ili93xx.o(i.LCD_WR_REG) for LCD_WR_REG
    ili93xx.o(i.LCD_SetCursor) refers to ili93xx.o(i.LCD_WR_DATA) for LCD_WR_DATA
    ili93xx.o(i.LCD_SetCursor) refers to ili93xx.o(i.LCD_WriteReg) for LCD_WriteReg
    ili93xx.o(i.LCD_SetCursor) refers to ili93xx.o(.bss) for lcddev
    ili93xx.o(i.LCD_Set_Window) refers to ili93xx.o(i.LCD_WR_REG) for LCD_WR_REG
    ili93xx.o(i.LCD_Set_Window) refers to ili93xx.o(i.LCD_WR_DATA) for LCD_WR_DATA
    ili93xx.o(i.LCD_Set_Window) refers to ili93xx.o(i.LCD_WriteReg) for LCD_WriteReg
    ili93xx.o(i.LCD_Set_Window) refers to ili93xx.o(i.LCD_SetCursor) for LCD_SetCursor
    ili93xx.o(i.LCD_Set_Window) refers to ili93xx.o(.bss) for lcddev
    ili93xx.o(i.LCD_ShowChar) refers to ili93xx.o(i.LCD_Fast_DrawPoint) for LCD_Fast_DrawPoint
    ili93xx.o(i.LCD_ShowChar) refers to ili93xx.o(.constdata) for asc2_1206
    ili93xx.o(i.LCD_ShowChar) refers to ili93xx.o(.data) for POINT_COLOR
    ili93xx.o(i.LCD_ShowChar) refers to ili93xx.o(.bss) for lcddev
    ili93xx.o(i.LCD_ShowNum) refers to ili93xx.o(i.LCD_Pow) for LCD_Pow
    ili93xx.o(i.LCD_ShowNum) refers to ili93xx.o(i.LCD_ShowChar) for LCD_ShowChar
    ili93xx.o(i.LCD_ShowString) refers to ili93xx.o(i.LCD_ShowChar) for LCD_ShowChar
    ili93xx.o(i.LCD_ShowxNum) refers to ili93xx.o(i.LCD_Pow) for LCD_Pow
    ili93xx.o(i.LCD_ShowxNum) refers to ili93xx.o(i.LCD_ShowChar) for LCD_ShowChar
    ili93xx.o(i.LCD_WriteRAM_Prepare) refers to ili93xx.o(.bss) for lcddev
    key.o(i.KEY_Init) refers to sys.o(i.GPIO_Set) for GPIO_Set
    key.o(i.KEY_Scan) refers to delay.o(i.delay_ms) for delay_ms
    key.o(i.KEY_Scan) refers to key.o(.data) for key_up
    sdio_sdcard.o(i.FindSCR) refers to sdio_sdcard.o(i.SDIO_Send_Cmd) for SDIO_Send_Cmd
    sdio_sdcard.o(i.FindSCR) refers to sdio_sdcard.o(i.CmdResp1Error) for CmdResp1Error
    sdio_sdcard.o(i.FindSCR) refers to sdio_sdcard.o(i.SDIO_Send_Data_Cfg) for SDIO_Send_Data_Cfg
    sdio_sdcard.o(i.IsCardProgramming) refers to sdio_sdcard.o(i.SDIO_Send_Cmd) for SDIO_Send_Cmd
    sdio_sdcard.o(i.IsCardProgramming) refers to sdio_sdcard.o(.data) for RCA
    sdio_sdcard.o(i.SDEnWideBus) refers to sdio_sdcard.o(i.FindSCR) for FindSCR
    sdio_sdcard.o(i.SDEnWideBus) refers to sdio_sdcard.o(i.SDIO_Send_Cmd) for SDIO_Send_Cmd
    sdio_sdcard.o(i.SDEnWideBus) refers to sdio_sdcard.o(i.CmdResp1Error) for CmdResp1Error
    sdio_sdcard.o(i.SDEnWideBus) refers to sdio_sdcard.o(.data) for RCA
    sdio_sdcard.o(i.SDIO_IRQHandler) refers to sdio_sdcard.o(i.SD_ProcessIRQSrc) for SD_ProcessIRQSrc
    sdio_sdcard.o(i.SD_EnableWideBusOperation) refers to sdio_sdcard.o(i.SDEnWideBus) for SDEnWideBus
    sdio_sdcard.o(i.SD_EnableWideBusOperation) refers to sdio_sdcard.o(.data) for CardType
    sdio_sdcard.o(i.SD_GetCardInfo) refers to sdio_sdcard.o(.data) for CardType
    sdio_sdcard.o(i.SD_GetCardInfo) refers to sdio_sdcard.o(.bss) for CSD_Tab
    sdio_sdcard.o(i.SD_GetState) refers to sdio_sdcard.o(i.SD_SendStatus) for SD_SendStatus
    sdio_sdcard.o(i.SD_Init) refers to sys.o(i.GPIO_Set) for GPIO_Set
    sdio_sdcard.o(i.SD_Init) refers to sys.o(i.GPIO_AF_Set) for GPIO_AF_Set
    sdio_sdcard.o(i.SD_Init) refers to sys.o(i.MY_NVIC_Init) for MY_NVIC_Init
    sdio_sdcard.o(i.SD_Init) refers to sdio_sdcard.o(i.SD_PowerON) for SD_PowerON
    sdio_sdcard.o(i.SD_Init) refers to sdio_sdcard.o(i.SD_InitializeCards) for SD_InitializeCards
    sdio_sdcard.o(i.SD_Init) refers to sdio_sdcard.o(i.SD_GetCardInfo) for SD_GetCardInfo
    sdio_sdcard.o(i.SD_Init) refers to sdio_sdcard.o(i.SD_SelectDeselect) for SD_SelectDeselect
    sdio_sdcard.o(i.SD_Init) refers to sdio_sdcard.o(i.SD_EnableWideBusOperation) for SD_EnableWideBusOperation
    sdio_sdcard.o(i.SD_Init) refers to sdio_sdcard.o(i.SDIO_Clock_Set) for SDIO_Clock_Set
    sdio_sdcard.o(i.SD_Init) refers to sdio_sdcard.o(i.SD_SetDeviceMode) for SD_SetDeviceMode
    sdio_sdcard.o(i.SD_Init) refers to sdio_sdcard.o(.bss) for SDCardInfo
    sdio_sdcard.o(i.SD_Init) refers to sdio_sdcard.o(.data) for CardType
    sdio_sdcard.o(i.SD_InitializeCards) refers to sdio_sdcard.o(i.SDIO_Send_Cmd) for SDIO_Send_Cmd
    sdio_sdcard.o(i.SD_InitializeCards) refers to sdio_sdcard.o(i.CmdResp2Error) for CmdResp2Error
    sdio_sdcard.o(i.SD_InitializeCards) refers to sdio_sdcard.o(i.CmdResp6Error) for CmdResp6Error
    sdio_sdcard.o(i.SD_InitializeCards) refers to sdio_sdcard.o(.data) for CardType
    sdio_sdcard.o(i.SD_InitializeCards) refers to sdio_sdcard.o(.bss) for CID_Tab
    sdio_sdcard.o(i.SD_PowerON) refers to sdio_sdcard.o(i.SDIO_Clock_Set) for SDIO_Clock_Set
    sdio_sdcard.o(i.SD_PowerON) refers to sdio_sdcard.o(i.SDIO_Send_Cmd) for SDIO_Send_Cmd
    sdio_sdcard.o(i.SD_PowerON) refers to sdio_sdcard.o(i.CmdError) for CmdError
    sdio_sdcard.o(i.SD_PowerON) refers to sdio_sdcard.o(i.CmdResp7Error) for CmdResp7Error
    sdio_sdcard.o(i.SD_PowerON) refers to sdio_sdcard.o(i.CmdResp1Error) for CmdResp1Error
    sdio_sdcard.o(i.SD_PowerON) refers to sdio_sdcard.o(i.CmdResp3Error) for CmdResp3Error
    sdio_sdcard.o(i.SD_PowerON) refers to sdio_sdcard.o(.data) for CardType
    sdio_sdcard.o(i.SD_ProcessIRQSrc) refers to sdio_sdcard.o(i.SDIO_Send_Cmd) for SDIO_Send_Cmd
    sdio_sdcard.o(i.SD_ProcessIRQSrc) refers to sdio_sdcard.o(i.CmdResp1Error) for CmdResp1Error
    sdio_sdcard.o(i.SD_ProcessIRQSrc) refers to sdio_sdcard.o(.data) for StopCondition
    sdio_sdcard.o(i.SD_ReadBlock) refers to sdio_sdcard.o(i.SDIO_Send_Data_Cfg) for SDIO_Send_Data_Cfg
    sdio_sdcard.o(i.SD_ReadBlock) refers to sdio_sdcard.o(i.convert_from_bytes_to_power_of_two) for convert_from_bytes_to_power_of_two
    sdio_sdcard.o(i.SD_ReadBlock) refers to sdio_sdcard.o(i.SDIO_Send_Cmd) for SDIO_Send_Cmd
    sdio_sdcard.o(i.SD_ReadBlock) refers to sdio_sdcard.o(i.CmdResp1Error) for CmdResp1Error
    sdio_sdcard.o(i.SD_ReadBlock) refers to sys.o(i.INTX_DISABLE) for INTX_DISABLE
    sdio_sdcard.o(i.SD_ReadBlock) refers to sys.o(i.INTX_ENABLE) for INTX_ENABLE
    sdio_sdcard.o(i.SD_ReadBlock) refers to sdio_sdcard.o(i.SD_DMA_Config) for SD_DMA_Config
    sdio_sdcard.o(i.SD_ReadBlock) refers to sdio_sdcard.o(.data) for CardType
    sdio_sdcard.o(i.SD_ReadDisk) refers to sdio_sdcard.o(i.SD_ReadBlock) for SD_ReadBlock
    sdio_sdcard.o(i.SD_ReadDisk) refers to rt_memcpy_v6.o(.text) for __aeabi_memcpy
    sdio_sdcard.o(i.SD_ReadDisk) refers to sdio_sdcard.o(i.SD_ReadMultiBlocks) for SD_ReadMultiBlocks
    sdio_sdcard.o(i.SD_ReadDisk) refers to sdio_sdcard.o(.data) for CardType
    sdio_sdcard.o(i.SD_ReadDisk) refers to sdio_sdcard.o(.bss) for SDIO_DATA_BUFFER
    sdio_sdcard.o(i.SD_ReadMultiBlocks) refers to sdio_sdcard.o(i.SDIO_Send_Data_Cfg) for SDIO_Send_Data_Cfg
    sdio_sdcard.o(i.SD_ReadMultiBlocks) refers to sdio_sdcard.o(i.convert_from_bytes_to_power_of_two) for convert_from_bytes_to_power_of_two
    sdio_sdcard.o(i.SD_ReadMultiBlocks) refers to sdio_sdcard.o(i.SDIO_Send_Cmd) for SDIO_Send_Cmd
    sdio_sdcard.o(i.SD_ReadMultiBlocks) refers to sdio_sdcard.o(i.CmdResp1Error) for CmdResp1Error
    sdio_sdcard.o(i.SD_ReadMultiBlocks) refers to sys.o(i.INTX_DISABLE) for INTX_DISABLE
    sdio_sdcard.o(i.SD_ReadMultiBlocks) refers to sys.o(i.INTX_ENABLE) for INTX_ENABLE
    sdio_sdcard.o(i.SD_ReadMultiBlocks) refers to sdio_sdcard.o(i.SD_DMA_Config) for SD_DMA_Config
    sdio_sdcard.o(i.SD_ReadMultiBlocks) refers to sdio_sdcard.o(.data) for tempbuff
    sdio_sdcard.o(i.SD_SelectDeselect) refers to sdio_sdcard.o(i.SDIO_Send_Cmd) for SDIO_Send_Cmd
    sdio_sdcard.o(i.SD_SelectDeselect) refers to sdio_sdcard.o(i.CmdResp1Error) for CmdResp1Error
    sdio_sdcard.o(i.SD_SendStatus) refers to sdio_sdcard.o(i.SDIO_Send_Cmd) for SDIO_Send_Cmd
    sdio_sdcard.o(i.SD_SendStatus) refers to sdio_sdcard.o(i.CmdResp1Error) for CmdResp1Error
    sdio_sdcard.o(i.SD_SendStatus) refers to sdio_sdcard.o(.data) for RCA
    sdio_sdcard.o(i.SD_SetDeviceMode) refers to sdio_sdcard.o(.data) for DeviceMode
    sdio_sdcard.o(i.SD_WriteBlock) refers to sdio_sdcard.o(i.SDIO_Send_Data_Cfg) for SDIO_Send_Data_Cfg
    sdio_sdcard.o(i.SD_WriteBlock) refers to sdio_sdcard.o(i.convert_from_bytes_to_power_of_two) for convert_from_bytes_to_power_of_two
    sdio_sdcard.o(i.SD_WriteBlock) refers to sdio_sdcard.o(i.SDIO_Send_Cmd) for SDIO_Send_Cmd
    sdio_sdcard.o(i.SD_WriteBlock) refers to sdio_sdcard.o(i.CmdResp1Error) for CmdResp1Error
    sdio_sdcard.o(i.SD_WriteBlock) refers to sys.o(i.INTX_DISABLE) for INTX_DISABLE
    sdio_sdcard.o(i.SD_WriteBlock) refers to sys.o(i.INTX_ENABLE) for INTX_ENABLE
    sdio_sdcard.o(i.SD_WriteBlock) refers to sdio_sdcard.o(i.SD_DMA_Config) for SD_DMA_Config
    sdio_sdcard.o(i.SD_WriteBlock) refers to sdio_sdcard.o(i.SD_Init) for SD_Init
    sdio_sdcard.o(i.SD_WriteBlock) refers to sdio_sdcard.o(i.IsCardProgramming) for IsCardProgramming
    sdio_sdcard.o(i.SD_WriteBlock) refers to sdio_sdcard.o(.data) for CardType
    sdio_sdcard.o(i.SD_WriteDisk) refers to rt_memcpy_v6.o(.text) for __aeabi_memcpy
    sdio_sdcard.o(i.SD_WriteDisk) refers to sdio_sdcard.o(i.SD_WriteBlock) for SD_WriteBlock
    sdio_sdcard.o(i.SD_WriteDisk) refers to sdio_sdcard.o(i.SD_WriteMultiBlocks) for SD_WriteMultiBlocks
    sdio_sdcard.o(i.SD_WriteDisk) refers to sdio_sdcard.o(.data) for CardType
    sdio_sdcard.o(i.SD_WriteDisk) refers to sdio_sdcard.o(.bss) for SDIO_DATA_BUFFER
    sdio_sdcard.o(i.SD_WriteMultiBlocks) refers to sdio_sdcard.o(i.SDIO_Send_Data_Cfg) for SDIO_Send_Data_Cfg
    sdio_sdcard.o(i.SD_WriteMultiBlocks) refers to sdio_sdcard.o(i.convert_from_bytes_to_power_of_two) for convert_from_bytes_to_power_of_two
    sdio_sdcard.o(i.SD_WriteMultiBlocks) refers to sdio_sdcard.o(i.SDIO_Send_Cmd) for SDIO_Send_Cmd
    sdio_sdcard.o(i.SD_WriteMultiBlocks) refers to sdio_sdcard.o(i.CmdResp1Error) for CmdResp1Error
    sdio_sdcard.o(i.SD_WriteMultiBlocks) refers to sys.o(i.INTX_DISABLE) for INTX_DISABLE
    sdio_sdcard.o(i.SD_WriteMultiBlocks) refers to sys.o(i.INTX_ENABLE) for INTX_ENABLE
    sdio_sdcard.o(i.SD_WriteMultiBlocks) refers to sdio_sdcard.o(i.SD_DMA_Config) for SD_DMA_Config
    sdio_sdcard.o(i.SD_WriteMultiBlocks) refers to sdio_sdcard.o(i.SD_Init) for SD_Init
    sdio_sdcard.o(i.SD_WriteMultiBlocks) refers to sdio_sdcard.o(i.IsCardProgramming) for IsCardProgramming
    sdio_sdcard.o(i.SD_WriteMultiBlocks) refers to sdio_sdcard.o(.data) for CardType
    spi.o(i.SPI1_Init) refers to sys.o(i.GPIO_Set) for GPIO_Set
    spi.o(i.SPI1_Init) refers to sys.o(i.GPIO_AF_Set) for GPIO_AF_Set
    spi.o(i.SPI1_Init) refers to spi.o(i.SPI1_ReadWriteByte) for SPI1_ReadWriteByte
    w25qxx.o(i.W25QXX_Erase_Chip) refers to w25qxx.o(i.W25QXX_Write_Enable) for W25QXX_Write_Enable
    w25qxx.o(i.W25QXX_Erase_Chip) refers to w25qxx.o(i.W25QXX_Wait_Busy) for W25QXX_Wait_Busy
    w25qxx.o(i.W25QXX_Erase_Chip) refers to spi.o(i.SPI1_ReadWriteByte) for SPI1_ReadWriteByte
    w25qxx.o(i.W25QXX_Erase_Sector) refers to _printf_percent.o(.ARM.Collect$$_printf_percent$$00000000) for _printf_percent
    w25qxx.o(i.W25QXX_Erase_Sector) refers to _printf_x.o(.ARM.Collect$$_printf_percent$$0000000C) for _printf_x
    w25qxx.o(i.W25QXX_Erase_Sector) refers to _printf_hex_int.o(.text) for _printf_longlong_hex
    w25qxx.o(i.W25QXX_Erase_Sector) refers to noretval__2printf.o(.text) for __2printf
    w25qxx.o(i.W25QXX_Erase_Sector) refers to w25qxx.o(i.W25QXX_Write_Enable) for W25QXX_Write_Enable
    w25qxx.o(i.W25QXX_Erase_Sector) refers to w25qxx.o(i.W25QXX_Wait_Busy) for W25QXX_Wait_Busy
    w25qxx.o(i.W25QXX_Erase_Sector) refers to spi.o(i.SPI1_ReadWriteByte) for SPI1_ReadWriteByte
    w25qxx.o(i.W25QXX_Init) refers to sys.o(i.GPIO_Set) for GPIO_Set
    w25qxx.o(i.W25QXX_Init) refers to spi.o(i.SPI1_Init) for SPI1_Init
    w25qxx.o(i.W25QXX_Init) refers to spi.o(i.SPI1_SetSpeed) for SPI1_SetSpeed
    w25qxx.o(i.W25QXX_Init) refers to w25qxx.o(i.W25QXX_ReadID) for W25QXX_ReadID
    w25qxx.o(i.W25QXX_Init) refers to w25qxx.o(.data) for W25QXX_TYPE
    w25qxx.o(i.W25QXX_PowerDown) refers to spi.o(i.SPI1_ReadWriteByte) for SPI1_ReadWriteByte
    w25qxx.o(i.W25QXX_PowerDown) refers to delay.o(i.delay_us) for delay_us
    w25qxx.o(i.W25QXX_Read) refers to spi.o(i.SPI1_ReadWriteByte) for SPI1_ReadWriteByte
    w25qxx.o(i.W25QXX_ReadID) refers to spi.o(i.SPI1_ReadWriteByte) for SPI1_ReadWriteByte
    w25qxx.o(i.W25QXX_ReadSR) refers to spi.o(i.SPI1_ReadWriteByte) for SPI1_ReadWriteByte
    w25qxx.o(i.W25QXX_WAKEUP) refers to spi.o(i.SPI1_ReadWriteByte) for SPI1_ReadWriteByte
    w25qxx.o(i.W25QXX_WAKEUP) refers to delay.o(i.delay_us) for delay_us
    w25qxx.o(i.W25QXX_Wait_Busy) refers to w25qxx.o(i.W25QXX_ReadSR) for W25QXX_ReadSR
    w25qxx.o(i.W25QXX_Write) refers to w25qxx.o(i.W25QXX_Read) for W25QXX_Read
    w25qxx.o(i.W25QXX_Write) refers to w25qxx.o(i.W25QXX_Erase_Sector) for W25QXX_Erase_Sector
    w25qxx.o(i.W25QXX_Write) refers to w25qxx.o(i.W25QXX_Write_NoCheck) for W25QXX_Write_NoCheck
    w25qxx.o(i.W25QXX_Write) refers to w25qxx.o(.bss) for W25QXX_BUFFER
    w25qxx.o(i.W25QXX_Write_Disable) refers to spi.o(i.SPI1_ReadWriteByte) for SPI1_ReadWriteByte
    w25qxx.o(i.W25QXX_Write_Enable) refers to spi.o(i.SPI1_ReadWriteByte) for SPI1_ReadWriteByte
    w25qxx.o(i.W25QXX_Write_NoCheck) refers to w25qxx.o(i.W25QXX_Write_Page) for W25QXX_Write_Page
    w25qxx.o(i.W25QXX_Write_Page) refers to w25qxx.o(i.W25QXX_Write_Enable) for W25QXX_Write_Enable
    w25qxx.o(i.W25QXX_Write_Page) refers to spi.o(i.SPI1_ReadWriteByte) for SPI1_ReadWriteByte
    w25qxx.o(i.W25QXX_Write_Page) refers to w25qxx.o(i.W25QXX_Wait_Busy) for W25QXX_Wait_Busy
    w25qxx.o(i.W25QXX_Write_SR) refers to spi.o(i.SPI1_ReadWriteByte) for SPI1_ReadWriteByte
    myiic.o(i.IIC_Ack) refers to delay.o(i.delay_us) for delay_us
    myiic.o(i.IIC_Init) refers to sys.o(i.GPIO_Set) for GPIO_Set
    myiic.o(i.IIC_NAck) refers to delay.o(i.delay_us) for delay_us
    myiic.o(i.IIC_Read_Byte) refers to delay.o(i.delay_us) for delay_us
    myiic.o(i.IIC_Read_Byte) refers to myiic.o(i.IIC_NAck) for IIC_NAck
    myiic.o(i.IIC_Read_Byte) refers to myiic.o(i.IIC_Ack) for IIC_Ack
    myiic.o(i.IIC_Send_Byte) refers to delay.o(i.delay_us) for delay_us
    myiic.o(i.IIC_Start) refers to delay.o(i.delay_us) for delay_us
    myiic.o(i.IIC_Stop) refers to delay.o(i.delay_us) for delay_us
    myiic.o(i.IIC_Wait_Ack) refers to delay.o(i.delay_us) for delay_us
    myiic.o(i.IIC_Wait_Ack) refers to myiic.o(i.IIC_Stop) for IIC_Stop
    i2s.o(i.DMA1_Stream4_IRQHandler) refers to i2s.o(.data) for i2s_tx_callback
    i2s.o(i.I2S2_SampleRate_Set) refers to i2s.o(.constdata) for I2S_PSC_TBL
    i2s.o(i.I2S2_TX_DMA_Init) refers to sys.o(i.MY_NVIC_Init) for MY_NVIC_Init
    wm8978.o(i.WM8978_3D_Set) refers to wm8978.o(i.WM8978_Write_Reg) for WM8978_Write_Reg
    wm8978.o(i.WM8978_ADDA_Cfg) refers to wm8978.o(i.WM8978_Read_Reg) for WM8978_Read_Reg
    wm8978.o(i.WM8978_ADDA_Cfg) refers to wm8978.o(i.WM8978_Write_Reg) for WM8978_Write_Reg
    wm8978.o(i.WM8978_AUX_Gain) refers to wm8978.o(i.WM8978_Read_Reg) for WM8978_Read_Reg
    wm8978.o(i.WM8978_AUX_Gain) refers to wm8978.o(i.WM8978_Write_Reg) for WM8978_Write_Reg
    wm8978.o(i.WM8978_EQ1_Set) refers to wm8978.o(i.WM8978_Read_Reg) for WM8978_Read_Reg
    wm8978.o(i.WM8978_EQ1_Set) refers to wm8978.o(i.WM8978_Write_Reg) for WM8978_Write_Reg
    wm8978.o(i.WM8978_EQ2_Set) refers to wm8978.o(i.WM8978_Write_Reg) for WM8978_Write_Reg
    wm8978.o(i.WM8978_EQ3_Set) refers to wm8978.o(i.WM8978_Write_Reg) for WM8978_Write_Reg
    wm8978.o(i.WM8978_EQ4_Set) refers to wm8978.o(i.WM8978_Write_Reg) for WM8978_Write_Reg
    wm8978.o(i.WM8978_EQ5_Set) refers to wm8978.o(i.WM8978_Write_Reg) for WM8978_Write_Reg
    wm8978.o(i.WM8978_EQ_3D_Dir) refers to wm8978.o(i.WM8978_Read_Reg) for WM8978_Read_Reg
    wm8978.o(i.WM8978_EQ_3D_Dir) refers to wm8978.o(i.WM8978_Write_Reg) for WM8978_Write_Reg
    wm8978.o(i.WM8978_HPvol_Set) refers to wm8978.o(i.WM8978_Write_Reg) for WM8978_Write_Reg
    wm8978.o(i.WM8978_I2S_Cfg) refers to wm8978.o(i.WM8978_Write_Reg) for WM8978_Write_Reg
    wm8978.o(i.WM8978_Init) refers to sys.o(i.GPIO_Set) for GPIO_Set
    wm8978.o(i.WM8978_Init) refers to sys.o(i.GPIO_AF_Set) for GPIO_AF_Set
    wm8978.o(i.WM8978_Init) refers to myiic.o(i.IIC_Init) for IIC_Init
    wm8978.o(i.WM8978_Init) refers to wm8978.o(i.WM8978_Write_Reg) for WM8978_Write_Reg
    wm8978.o(i.WM8978_Input_Cfg) refers to wm8978.o(i.WM8978_Read_Reg) for WM8978_Read_Reg
    wm8978.o(i.WM8978_Input_Cfg) refers to wm8978.o(i.WM8978_Write_Reg) for WM8978_Write_Reg
    wm8978.o(i.WM8978_Input_Cfg) refers to wm8978.o(i.WM8978_LINEIN_Gain) for WM8978_LINEIN_Gain
    wm8978.o(i.WM8978_Input_Cfg) refers to wm8978.o(i.WM8978_AUX_Gain) for WM8978_AUX_Gain
    wm8978.o(i.WM8978_LINEIN_Gain) refers to wm8978.o(i.WM8978_Read_Reg) for WM8978_Read_Reg
    wm8978.o(i.WM8978_LINEIN_Gain) refers to wm8978.o(i.WM8978_Write_Reg) for WM8978_Write_Reg
    wm8978.o(i.WM8978_MIC_Gain) refers to wm8978.o(i.WM8978_Write_Reg) for WM8978_Write_Reg
    wm8978.o(i.WM8978_Output_Cfg) refers to wm8978.o(i.WM8978_Write_Reg) for WM8978_Write_Reg
    wm8978.o(i.WM8978_Read_Reg) refers to wm8978.o(.data) for WM8978_REGVAL_TBL
    wm8978.o(i.WM8978_SPKvol_Set) refers to wm8978.o(i.WM8978_Write_Reg) for WM8978_Write_Reg
    wm8978.o(i.WM8978_Write_Reg) refers to myiic.o(i.IIC_Start) for IIC_Start
    wm8978.o(i.WM8978_Write_Reg) refers to myiic.o(i.IIC_Send_Byte) for IIC_Send_Byte
    wm8978.o(i.WM8978_Write_Reg) refers to myiic.o(i.IIC_Wait_Ack) for IIC_Wait_Ack
    wm8978.o(i.WM8978_Write_Reg) refers to myiic.o(i.IIC_Stop) for IIC_Stop
    wm8978.o(i.WM8978_Write_Reg) refers to wm8978.o(.data) for WM8978_REGVAL_TBL
    malloc.o(i.my_mem_free) refers to malloc.o(.data) for mallco_dev
    malloc.o(i.my_mem_free) refers to malloc.o(.constdata) for memsize
    malloc.o(i.my_mem_init) refers to malloc.o(i.mymemset) for mymemset
    malloc.o(i.my_mem_init) refers to malloc.o(.constdata) for memtblsize
    malloc.o(i.my_mem_init) refers to malloc.o(.data) for mallco_dev
    malloc.o(i.my_mem_malloc) refers to malloc.o(.data) for mallco_dev
    malloc.o(i.my_mem_malloc) refers to malloc.o(.constdata) for memblksize
    malloc.o(i.my_mem_perused) refers to malloc.o(.data) for mallco_dev
    malloc.o(i.my_mem_perused) refers to malloc.o(.constdata) for memtblsize
    malloc.o(i.myfree) refers to malloc.o(i.my_mem_free) for my_mem_free
    malloc.o(i.myfree) refers to malloc.o(.data) for mallco_dev
    malloc.o(i.mymalloc) refers to malloc.o(i.my_mem_malloc) for my_mem_malloc
    malloc.o(i.mymalloc) refers to malloc.o(.data) for mallco_dev
    malloc.o(i.myrealloc) refers to malloc.o(i.my_mem_malloc) for my_mem_malloc
    malloc.o(i.myrealloc) refers to malloc.o(i.mymemcpy) for mymemcpy
    malloc.o(i.myrealloc) refers to malloc.o(i.myfree) for myfree
    malloc.o(i.myrealloc) refers to malloc.o(.data) for mallco_dev
    malloc.o(.data) refers to malloc.o(i.my_mem_init) for my_mem_init
    malloc.o(.data) refers to malloc.o(i.my_mem_perused) for my_mem_perused
    malloc.o(.data) refers to malloc.o(.bss) for mem1base
    malloc.o(.data) refers to malloc.o(.ARM.__AT_0x68000000) for mem2base
    malloc.o(.data) refers to malloc.o(.ARM.__AT_0x10000000) for mem3base
    malloc.o(.data) refers to malloc.o(.ARM.__AT_0x680F0000) for mem2mapbase
    malloc.o(.data) refers to malloc.o(.ARM.__AT_0x1000F000) for mem3mapbase
    ff.o(i.check_fs) refers to ff.o(i.move_window) for move_window
    ff.o(i.cmp_lfn) refers to mycc936.o(i.ff_wtoupper) for ff_wtoupper
    ff.o(i.cmp_lfn) refers to ff.o(.constdata) for LfnOfs
    ff.o(i.create_chain) refers to ff.o(i.get_fat) for get_fat
    ff.o(i.create_chain) refers to ff.o(i.put_fat) for put_fat
    ff.o(i.create_name) refers to mycc936.o(i.ff_convert) for ff_convert
    ff.o(i.create_name) refers to ff.o(i.chk_chr) for chk_chr
    ff.o(i.create_name) refers to ff.o(i.mem_set) for mem_set
    ff.o(i.create_name) refers to mycc936.o(i.ff_wtoupper) for ff_wtoupper
    ff.o(i.dir_alloc) refers to ff.o(i.dir_sdi) for dir_sdi
    ff.o(i.dir_alloc) refers to ff.o(i.move_window) for move_window
    ff.o(i.dir_alloc) refers to ff.o(i.dir_next) for dir_next
    ff.o(i.dir_find) refers to ff.o(i.dir_sdi) for dir_sdi
    ff.o(i.dir_find) refers to ff.o(i.move_window) for move_window
    ff.o(i.dir_find) refers to ff.o(i.cmp_lfn) for cmp_lfn
    ff.o(i.dir_find) refers to ff.o(i.sum_sfn) for sum_sfn
    ff.o(i.dir_find) refers to ff.o(i.mem_cmp) for mem_cmp
    ff.o(i.dir_find) refers to ff.o(i.dir_next) for dir_next
    ff.o(i.dir_next) refers to ff.o(i.get_fat) for get_fat
    ff.o(i.dir_next) refers to ff.o(i.create_chain) for create_chain
    ff.o(i.dir_next) refers to ff.o(i.sync_window) for sync_window
    ff.o(i.dir_next) refers to ff.o(i.mem_set) for mem_set
    ff.o(i.dir_next) refers to ff.o(i.clust2sect) for clust2sect
    ff.o(i.dir_read) refers to ff.o(i.move_window) for move_window
    ff.o(i.dir_read) refers to ff.o(i.pick_lfn) for pick_lfn
    ff.o(i.dir_read) refers to ff.o(i.sum_sfn) for sum_sfn
    ff.o(i.dir_read) refers to ff.o(i.dir_next) for dir_next
    ff.o(i.dir_register) refers to ff.o(i.mem_cpy) for mem_cpy
    ff.o(i.dir_register) refers to ff.o(i.gen_numname) for gen_numname
    ff.o(i.dir_register) refers to ff.o(i.dir_find) for dir_find
    ff.o(i.dir_register) refers to ff.o(i.dir_alloc) for dir_alloc
    ff.o(i.dir_register) refers to ff.o(i.dir_sdi) for dir_sdi
    ff.o(i.dir_register) refers to ff.o(i.sum_sfn) for sum_sfn
    ff.o(i.dir_register) refers to ff.o(i.move_window) for move_window
    ff.o(i.dir_register) refers to ff.o(i.fit_lfn) for fit_lfn
    ff.o(i.dir_register) refers to ff.o(i.dir_next) for dir_next
    ff.o(i.dir_register) refers to ff.o(i.mem_set) for mem_set
    ff.o(i.dir_remove) refers to ff.o(i.dir_sdi) for dir_sdi
    ff.o(i.dir_remove) refers to ff.o(i.move_window) for move_window
    ff.o(i.dir_remove) refers to ff.o(i.mem_set) for mem_set
    ff.o(i.dir_remove) refers to ff.o(i.dir_next) for dir_next
    ff.o(i.dir_sdi) refers to ff.o(i.get_fat) for get_fat
    ff.o(i.dir_sdi) refers to ff.o(i.clust2sect) for clust2sect
    ff.o(i.f_chmod) refers to ff.o(i.find_volume) for find_volume
    ff.o(i.f_chmod) refers to diskio.o(i.ff_memalloc) for ff_memalloc
    ff.o(i.f_chmod) refers to ff.o(i.follow_path) for follow_path
    ff.o(i.f_chmod) refers to diskio.o(i.ff_memfree) for ff_memfree
    ff.o(i.f_chmod) refers to ff.o(i.sync_fs) for sync_fs
    ff.o(i.f_close) refers to ff.o(i.f_sync) for f_sync
    ff.o(i.f_close) refers to ff.o(i.validate) for validate
    ff.o(i.f_closedir) refers to ff.o(i.validate) for validate
    ff.o(i.f_getfree) refers to ff.o(i.find_volume) for find_volume
    ff.o(i.f_getfree) refers to ff.o(i.get_fat) for get_fat
    ff.o(i.f_getfree) refers to ff.o(i.move_window) for move_window
    ff.o(i.f_getlabel) refers to ff.o(i.find_volume) for find_volume
    ff.o(i.f_getlabel) refers to ff.o(i.dir_sdi) for dir_sdi
    ff.o(i.f_getlabel) refers to ff.o(i.dir_read) for dir_read
    ff.o(i.f_getlabel) refers to ff.o(i.mem_cpy) for mem_cpy
    ff.o(i.f_getlabel) refers to ff.o(i.move_window) for move_window
    ff.o(i.f_gets) refers to ff.o(i.f_read) for f_read
    ff.o(i.f_lseek) refers to ff.o(i.validate) for validate
    ff.o(i.f_lseek) refers to ff.o(i.get_fat) for get_fat
    ff.o(i.f_lseek) refers to ff.o(i.clmt_clust) for clmt_clust
    ff.o(i.f_lseek) refers to ff.o(i.clust2sect) for clust2sect
    ff.o(i.f_lseek) refers to diskio.o(i.disk_write) for disk_write
    ff.o(i.f_lseek) refers to diskio.o(i.disk_read) for disk_read
    ff.o(i.f_lseek) refers to ff.o(i.create_chain) for create_chain
    ff.o(i.f_mkdir) refers to diskio.o(i.get_fattime) for get_fattime
    ff.o(i.f_mkdir) refers to ff.o(i.find_volume) for find_volume
    ff.o(i.f_mkdir) refers to diskio.o(i.ff_memalloc) for ff_memalloc
    ff.o(i.f_mkdir) refers to ff.o(i.follow_path) for follow_path
    ff.o(i.f_mkdir) refers to ff.o(i.create_chain) for create_chain
    ff.o(i.f_mkdir) refers to ff.o(i.sync_window) for sync_window
    ff.o(i.f_mkdir) refers to ff.o(i.clust2sect) for clust2sect
    ff.o(i.f_mkdir) refers to ff.o(i.mem_set) for mem_set
    ff.o(i.f_mkdir) refers to ff.o(i.st_clust) for st_clust
    ff.o(i.f_mkdir) refers to ff.o(i.mem_cpy) for mem_cpy
    ff.o(i.f_mkdir) refers to ff.o(i.dir_register) for dir_register
    ff.o(i.f_mkdir) refers to ff.o(i.remove_chain) for remove_chain
    ff.o(i.f_mkdir) refers to ff.o(i.sync_fs) for sync_fs
    ff.o(i.f_mkdir) refers to diskio.o(i.ff_memfree) for ff_memfree
    ff.o(i.f_mkfs) refers to ff.o(i.get_ldnumber) for get_ldnumber
    ff.o(i.f_mkfs) refers to diskio.o(i.disk_initialize) for disk_initialize
    ff.o(i.f_mkfs) refers to diskio.o(i.disk_ioctl) for disk_ioctl
    ff.o(i.f_mkfs) refers to ff.o(i.mem_set) for mem_set
    ff.o(i.f_mkfs) refers to diskio.o(i.disk_write) for disk_write
    ff.o(i.f_mkfs) refers to ff.o(i.mem_cpy) for mem_cpy
    ff.o(i.f_mkfs) refers to diskio.o(i.get_fattime) for get_fattime
    ff.o(i.f_mkfs) refers to ff.o(.bss) for FatFs
    ff.o(i.f_mkfs) refers to ff.o(.constdata) for vst
    ff.o(i.f_mount) refers to ff.o(i.get_ldnumber) for get_ldnumber
    ff.o(i.f_mount) refers to ff.o(i.find_volume) for find_volume
    ff.o(i.f_mount) refers to ff.o(.bss) for FatFs
    ff.o(i.f_open) refers to ff.o(i.find_volume) for find_volume
    ff.o(i.f_open) refers to diskio.o(i.ff_memalloc) for ff_memalloc
    ff.o(i.f_open) refers to ff.o(i.follow_path) for follow_path
    ff.o(i.f_open) refers to ff.o(i.dir_register) for dir_register
    ff.o(i.f_open) refers to diskio.o(i.get_fattime) for get_fattime
    ff.o(i.f_open) refers to ff.o(i.ld_clust) for ld_clust
    ff.o(i.f_open) refers to ff.o(i.st_clust) for st_clust
    ff.o(i.f_open) refers to ff.o(i.remove_chain) for remove_chain
    ff.o(i.f_open) refers to ff.o(i.move_window) for move_window
    ff.o(i.f_open) refers to diskio.o(i.ff_memfree) for ff_memfree
    ff.o(i.f_opendir) refers to ff.o(i.find_volume) for find_volume
    ff.o(i.f_opendir) refers to diskio.o(i.ff_memalloc) for ff_memalloc
    ff.o(i.f_opendir) refers to ff.o(i.follow_path) for follow_path
    ff.o(i.f_opendir) refers to diskio.o(i.ff_memfree) for ff_memfree
    ff.o(i.f_opendir) refers to ff.o(i.ld_clust) for ld_clust
    ff.o(i.f_opendir) refers to ff.o(i.dir_sdi) for dir_sdi
    ff.o(i.f_printf) refers to ff.o(i.putc_bfd) for putc_bfd
    ff.o(i.f_printf) refers to ff.o(i.f_write) for f_write
    ff.o(i.f_putc) refers to ff.o(i.putc_bfd) for putc_bfd
    ff.o(i.f_putc) refers to ff.o(i.f_write) for f_write
    ff.o(i.f_puts) refers to ff.o(i.putc_bfd) for putc_bfd
    ff.o(i.f_puts) refers to ff.o(i.f_write) for f_write
    ff.o(i.f_read) refers to ff.o(i.validate) for validate
    ff.o(i.f_read) refers to ff.o(i.clmt_clust) for clmt_clust
    ff.o(i.f_read) refers to ff.o(i.get_fat) for get_fat
    ff.o(i.f_read) refers to ff.o(i.clust2sect) for clust2sect
    ff.o(i.f_read) refers to diskio.o(i.disk_read) for disk_read
    ff.o(i.f_read) refers to ff.o(i.mem_cpy) for mem_cpy
    ff.o(i.f_read) refers to diskio.o(i.disk_write) for disk_write
    ff.o(i.f_readdir) refers to ff.o(i.validate) for validate
    ff.o(i.f_readdir) refers to ff.o(i.dir_sdi) for dir_sdi
    ff.o(i.f_readdir) refers to diskio.o(i.ff_memalloc) for ff_memalloc
    ff.o(i.f_readdir) refers to ff.o(i.dir_read) for dir_read
    ff.o(i.f_readdir) refers to ff.o(i.get_fileinfo) for get_fileinfo
    ff.o(i.f_readdir) refers to ff.o(i.dir_next) for dir_next
    ff.o(i.f_readdir) refers to diskio.o(i.ff_memfree) for ff_memfree
    ff.o(i.f_rename) refers to ff.o(i.find_volume) for find_volume
    ff.o(i.f_rename) refers to diskio.o(i.ff_memalloc) for ff_memalloc
    ff.o(i.f_rename) refers to ff.o(i.follow_path) for follow_path
    ff.o(i.f_rename) refers to ff.o(i.mem_cpy) for mem_cpy
    ff.o(i.f_rename) refers to ff.o(i.get_ldnumber) for get_ldnumber
    ff.o(i.f_rename) refers to ff.o(i.dir_register) for dir_register
    ff.o(i.f_rename) refers to ff.o(i.ld_clust) for ld_clust
    ff.o(i.f_rename) refers to ff.o(i.clust2sect) for clust2sect
    ff.o(i.f_rename) refers to ff.o(i.move_window) for move_window
    ff.o(i.f_rename) refers to ff.o(i.st_clust) for st_clust
    ff.o(i.f_rename) refers to ff.o(i.dir_remove) for dir_remove
    ff.o(i.f_rename) refers to ff.o(i.sync_fs) for sync_fs
    ff.o(i.f_rename) refers to diskio.o(i.ff_memfree) for ff_memfree
    ff.o(i.f_setlabel) refers to ff.o(i.find_volume) for find_volume
    ff.o(i.f_setlabel) refers to mycc936.o(i.ff_convert) for ff_convert
    ff.o(i.f_setlabel) refers to mycc936.o(i.ff_wtoupper) for ff_wtoupper
    ff.o(i.f_setlabel) refers to ff.o(i.chk_chr) for chk_chr
    ff.o(i.f_setlabel) refers to ff.o(i.dir_sdi) for dir_sdi
    ff.o(i.f_setlabel) refers to ff.o(i.dir_read) for dir_read
    ff.o(i.f_setlabel) refers to ff.o(i.mem_cpy) for mem_cpy
    ff.o(i.f_setlabel) refers to diskio.o(i.get_fattime) for get_fattime
    ff.o(i.f_setlabel) refers to ff.o(i.sync_fs) for sync_fs
    ff.o(i.f_setlabel) refers to ff.o(i.dir_alloc) for dir_alloc
    ff.o(i.f_setlabel) refers to ff.o(i.mem_set) for mem_set
    ff.o(i.f_stat) refers to ff.o(i.find_volume) for find_volume
    ff.o(i.f_stat) refers to diskio.o(i.ff_memalloc) for ff_memalloc
    ff.o(i.f_stat) refers to ff.o(i.follow_path) for follow_path
    ff.o(i.f_stat) refers to ff.o(i.get_fileinfo) for get_fileinfo
    ff.o(i.f_stat) refers to diskio.o(i.ff_memfree) for ff_memfree
    ff.o(i.f_sync) refers to ff.o(i.validate) for validate
    ff.o(i.f_sync) refers to diskio.o(i.disk_write) for disk_write
    ff.o(i.f_sync) refers to ff.o(i.move_window) for move_window
    ff.o(i.f_sync) refers to ff.o(i.st_clust) for st_clust
    ff.o(i.f_sync) refers to diskio.o(i.get_fattime) for get_fattime
    ff.o(i.f_sync) refers to ff.o(i.sync_fs) for sync_fs
    ff.o(i.f_truncate) refers to ff.o(i.validate) for validate
    ff.o(i.f_truncate) refers to ff.o(i.remove_chain) for remove_chain
    ff.o(i.f_truncate) refers to ff.o(i.get_fat) for get_fat
    ff.o(i.f_truncate) refers to ff.o(i.put_fat) for put_fat
    ff.o(i.f_truncate) refers to diskio.o(i.disk_write) for disk_write
    ff.o(i.f_unlink) refers to ff.o(i.find_volume) for find_volume
    ff.o(i.f_unlink) refers to diskio.o(i.ff_memalloc) for ff_memalloc
    ff.o(i.f_unlink) refers to ff.o(i.follow_path) for follow_path
    ff.o(i.f_unlink) refers to ff.o(i.ld_clust) for ld_clust
    ff.o(i.f_unlink) refers to ff.o(i.mem_cpy) for mem_cpy
    ff.o(i.f_unlink) refers to ff.o(i.dir_sdi) for dir_sdi
    ff.o(i.f_unlink) refers to ff.o(i.dir_read) for dir_read
    ff.o(i.f_unlink) refers to ff.o(i.dir_remove) for dir_remove
    ff.o(i.f_unlink) refers to ff.o(i.remove_chain) for remove_chain
    ff.o(i.f_unlink) refers to ff.o(i.sync_fs) for sync_fs
    ff.o(i.f_unlink) refers to diskio.o(i.ff_memfree) for ff_memfree
    ff.o(i.f_utime) refers to ff.o(i.find_volume) for find_volume
    ff.o(i.f_utime) refers to diskio.o(i.ff_memalloc) for ff_memalloc
    ff.o(i.f_utime) refers to ff.o(i.follow_path) for follow_path
    ff.o(i.f_utime) refers to diskio.o(i.ff_memfree) for ff_memfree
    ff.o(i.f_utime) refers to ff.o(i.sync_fs) for sync_fs
    ff.o(i.f_write) refers to ff.o(i.validate) for validate
    ff.o(i.f_write) refers to ff.o(i.create_chain) for create_chain
    ff.o(i.f_write) refers to ff.o(i.clmt_clust) for clmt_clust
    ff.o(i.f_write) refers to diskio.o(i.disk_write) for disk_write
    ff.o(i.f_write) refers to ff.o(i.clust2sect) for clust2sect
    ff.o(i.f_write) refers to ff.o(i.mem_cpy) for mem_cpy
    ff.o(i.f_write) refers to diskio.o(i.disk_read) for disk_read
    ff.o(i.find_volume) refers to ff.o(i.get_ldnumber) for get_ldnumber
    ff.o(i.find_volume) refers to diskio.o(i.disk_status) for disk_status
    ff.o(i.find_volume) refers to diskio.o(i.disk_initialize) for disk_initialize
    ff.o(i.find_volume) refers to ff.o(i.check_fs) for check_fs
    ff.o(i.find_volume) refers to ff.o(i.move_window) for move_window
    ff.o(i.find_volume) refers to ff.o(.bss) for FatFs
    ff.o(i.find_volume) refers to ff.o(.data) for Fsid
    ff.o(i.fit_lfn) refers to ff.o(.constdata) for LfnOfs
    ff.o(i.follow_path) refers to ff.o(i.dir_sdi) for dir_sdi
    ff.o(i.follow_path) refers to ff.o(i.create_name) for create_name
    ff.o(i.follow_path) refers to ff.o(i.dir_find) for dir_find
    ff.o(i.follow_path) refers to ff.o(i.ld_clust) for ld_clust
    ff.o(i.gen_numname) refers to ff.o(i.mem_cpy) for mem_cpy
    ff.o(i.get_fat) refers to ff.o(i.move_window) for move_window
    ff.o(i.get_fileinfo) refers to mycc936.o(i.ff_convert) for ff_convert
    ff.o(i.move_window) refers to ff.o(i.sync_window) for sync_window
    ff.o(i.move_window) refers to diskio.o(i.disk_read) for disk_read
    ff.o(i.pick_lfn) refers to ff.o(.constdata) for LfnOfs
    ff.o(i.put_fat) refers to ff.o(i.move_window) for move_window
    ff.o(i.putc_bfd) refers to ff.o(i.f_write) for f_write
    ff.o(i.remove_chain) refers to ff.o(i.get_fat) for get_fat
    ff.o(i.remove_chain) refers to ff.o(i.put_fat) for put_fat
    ff.o(i.sync_fs) refers to ff.o(i.sync_window) for sync_window
    ff.o(i.sync_fs) refers to ff.o(i.mem_set) for mem_set
    ff.o(i.sync_fs) refers to diskio.o(i.disk_write) for disk_write
    ff.o(i.sync_fs) refers to diskio.o(i.disk_ioctl) for disk_ioctl
    ff.o(i.sync_window) refers to diskio.o(i.disk_write) for disk_write
    ff.o(i.validate) refers to diskio.o(i.disk_status) for disk_status
    diskio.o(i.disk_initialize) refers to sdio_sdcard.o(i.SD_Init) for SD_Init
    diskio.o(i.disk_initialize) refers to w25qxx.o(i.W25QXX_Init) for W25QXX_Init
    diskio.o(i.disk_initialize) refers to diskio.o(.data) for FLASH_SECTOR_COUNT
    diskio.o(i.disk_ioctl) refers to llsdiv.o(.text) for __aeabi_ldivmod
    diskio.o(i.disk_ioctl) refers to sdio_sdcard.o(.bss) for SDCardInfo
    diskio.o(i.disk_ioctl) refers to diskio.o(.data) for FLASH_SECTOR_COUNT
    diskio.o(i.disk_read) refers to sdio_sdcard.o(i.SD_ReadDisk) for SD_ReadDisk
    diskio.o(i.disk_read) refers to sdio_sdcard.o(i.SD_Init) for SD_Init
    diskio.o(i.disk_read) refers to w25qxx.o(i.W25QXX_Read) for W25QXX_Read
    diskio.o(i.disk_write) refers to sdio_sdcard.o(i.SD_WriteDisk) for SD_WriteDisk
    diskio.o(i.disk_write) refers to sdio_sdcard.o(i.SD_Init) for SD_Init
    diskio.o(i.disk_write) refers to w25qxx.o(i.W25QXX_Write) for W25QXX_Write
    diskio.o(i.ff_memalloc) refers to malloc.o(i.mymalloc) for mymalloc
    diskio.o(i.ff_memfree) refers to malloc.o(i.myfree) for myfree
    exfuns.o(i.exf_getfree) refers to ff.o(i.f_getfree) for f_getfree
    exfuns.o(i.exfuns_init) refers to malloc.o(i.mymalloc) for mymalloc
    exfuns.o(i.exfuns_init) refers to exfuns.o(.bss) for fs
    exfuns.o(i.exfuns_init) refers to exfuns.o(.data) for file
    exfuns.o(i.f_typetell) refers to strcpy.o(.text) for strcpy
    exfuns.o(i.f_typetell) refers to exfuns.o(i.char_upper) for char_upper
    exfuns.o(i.f_typetell) refers to strcmpv7m.o(.text) for strcmp
    exfuns.o(i.f_typetell) refers to exfuns.o(.constdata) for FILE_TYPE_TBL
    exfuns.o(.constdata) refers to exfuns.o(.conststring) for .conststring
    fattester.o(i.mf_close) refers to ff.o(i.f_close) for f_close
    fattester.o(i.mf_close) refers to exfuns.o(.data) for file
    fattester.o(i.mf_closedir) refers to ff.o(i.f_closedir) for f_closedir
    fattester.o(i.mf_closedir) refers to exfuns.o(.bss) for dir
    fattester.o(i.mf_fmkfs) refers to ff.o(i.f_mkfs) for f_mkfs
    fattester.o(i.mf_getlabel) refers to _printf_percent.o(.ARM.Collect$$_printf_percent$$00000000) for _printf_percent
    fattester.o(i.mf_getlabel) refers to _printf_s.o(.ARM.Collect$$_printf_percent$$00000014) for _printf_s
    fattester.o(i.mf_getlabel) refers to _printf_str.o(.text) for _printf_str
    fattester.o(i.mf_getlabel) refers to _printf_x.o(.ARM.Collect$$_printf_percent$$0000000C) for _printf_x
    fattester.o(i.mf_getlabel) refers to _printf_hex_int.o(.text) for _printf_longlong_hex
    fattester.o(i.mf_getlabel) refers to ff.o(i.f_getlabel) for f_getlabel
    fattester.o(i.mf_getlabel) refers to noretval__2printf.o(.text) for __2printf
    fattester.o(i.mf_gets) refers to _printf_percent.o(.ARM.Collect$$_printf_percent$$00000000) for _printf_percent
    fattester.o(i.mf_gets) refers to _printf_s.o(.ARM.Collect$$_printf_percent$$00000014) for _printf_s
    fattester.o(i.mf_gets) refers to _printf_str.o(.text) for _printf_str
    fattester.o(i.mf_gets) refers to ff.o(i.f_gets) for f_gets
    fattester.o(i.mf_gets) refers to noretval__2printf.o(.text) for __2printf
    fattester.o(i.mf_gets) refers to exfuns.o(.data) for file
    fattester.o(i.mf_lseek) refers to ff.o(i.f_lseek) for f_lseek
    fattester.o(i.mf_lseek) refers to exfuns.o(.data) for file
    fattester.o(i.mf_mkdir) refers to ff.o(i.f_mkdir) for f_mkdir
    fattester.o(i.mf_mount) refers to ff.o(i.f_mount) for f_mount
    fattester.o(i.mf_mount) refers to exfuns.o(.bss) for fs
    fattester.o(i.mf_open) refers to ff.o(i.f_open) for f_open
    fattester.o(i.mf_open) refers to exfuns.o(.data) for file
    fattester.o(i.mf_opendir) refers to ff.o(i.f_opendir) for f_opendir
    fattester.o(i.mf_opendir) refers to exfuns.o(.bss) for dir
    fattester.o(i.mf_putc) refers to ff.o(i.f_putc) for f_putc
    fattester.o(i.mf_putc) refers to exfuns.o(.data) for file
    fattester.o(i.mf_puts) refers to ff.o(i.f_puts) for f_puts
    fattester.o(i.mf_puts) refers to exfuns.o(.data) for file
    fattester.o(i.mf_read) refers to _printf_percent.o(.ARM.Collect$$_printf_percent$$00000000) for _printf_percent
    fattester.o(i.mf_read) refers to _printf_d.o(.ARM.Collect$$_printf_percent$$00000009) for _printf_d
    fattester.o(i.mf_read) refers to _printf_dec.o(.text) for _printf_int_dec
    fattester.o(i.mf_read) refers to _printf_c.o(.ARM.Collect$$_printf_percent$$00000013) for _printf_c
    fattester.o(i.mf_read) refers to _printf_str.o(.text) for _printf_str
    fattester.o(i.mf_read) refers to noretval__2printf.o(.text) for __2printf
    fattester.o(i.mf_read) refers to ff.o(i.f_read) for f_read
    fattester.o(i.mf_read) refers to exfuns.o(.data) for br
    fattester.o(i.mf_readdir) refers to _printf_percent.o(.ARM.Collect$$_printf_percent$$00000000) for _printf_percent
    fattester.o(i.mf_readdir) refers to _printf_d.o(.ARM.Collect$$_printf_percent$$00000009) for _printf_d
    fattester.o(i.mf_readdir) refers to _printf_dec.o(.text) for _printf_int_dec
    fattester.o(i.mf_readdir) refers to _printf_s.o(.ARM.Collect$$_printf_percent$$00000014) for _printf_s
    fattester.o(i.mf_readdir) refers to _printf_str.o(.text) for _printf_str
    fattester.o(i.mf_readdir) refers to malloc.o(i.mymalloc) for mymalloc
    fattester.o(i.mf_readdir) refers to ff.o(i.f_readdir) for f_readdir
    fattester.o(i.mf_readdir) refers to malloc.o(i.myfree) for myfree
    fattester.o(i.mf_readdir) refers to noretval__2printf.o(.text) for __2printf
    fattester.o(i.mf_readdir) refers to exfuns.o(.bss) for fileinfo
    fattester.o(i.mf_rename) refers to ff.o(i.f_rename) for f_rename
    fattester.o(i.mf_scan_files) refers to _printf_percent.o(.ARM.Collect$$_printf_percent$$00000000) for _printf_percent
    fattester.o(i.mf_scan_files) refers to _printf_s.o(.ARM.Collect$$_printf_percent$$00000014) for _printf_s
    fattester.o(i.mf_scan_files) refers to _printf_str.o(.text) for _printf_str
    fattester.o(i.mf_scan_files) refers to malloc.o(i.mymalloc) for mymalloc
    fattester.o(i.mf_scan_files) refers to ff.o(i.f_opendir) for f_opendir
    fattester.o(i.mf_scan_files) refers to noretval__2printf.o(.text) for __2printf
    fattester.o(i.mf_scan_files) refers to ff.o(i.f_readdir) for f_readdir
    fattester.o(i.mf_scan_files) refers to malloc.o(i.myfree) for myfree
    fattester.o(i.mf_scan_files) refers to exfuns.o(.bss) for fileinfo
    fattester.o(i.mf_setlabel) refers to _printf_percent.o(.ARM.Collect$$_printf_percent$$00000000) for _printf_percent
    fattester.o(i.mf_setlabel) refers to _printf_s.o(.ARM.Collect$$_printf_percent$$00000014) for _printf_s
    fattester.o(i.mf_setlabel) refers to _printf_str.o(.text) for _printf_str
    fattester.o(i.mf_setlabel) refers to _printf_x.o(.ARM.Collect$$_printf_percent$$0000000C) for _printf_x
    fattester.o(i.mf_setlabel) refers to _printf_hex_int.o(.text) for _printf_longlong_hex
    fattester.o(i.mf_setlabel) refers to ff.o(i.f_setlabel) for f_setlabel
    fattester.o(i.mf_setlabel) refers to noretval__2printf.o(.text) for __2printf
    fattester.o(i.mf_showfree) refers to _printf_percent.o(.ARM.Collect$$_printf_percent$$00000000) for _printf_percent
    fattester.o(i.mf_showfree) refers to _printf_d.o(.ARM.Collect$$_printf_percent$$00000009) for _printf_d
    fattester.o(i.mf_showfree) refers to _printf_dec.o(.text) for _printf_int_dec
    fattester.o(i.mf_showfree) refers to ff.o(i.f_getfree) for f_getfree
    fattester.o(i.mf_showfree) refers to noretval__2printf.o(.text) for __2printf
    fattester.o(i.mf_size) refers to exfuns.o(.data) for file
    fattester.o(i.mf_tell) refers to exfuns.o(.data) for file
    fattester.o(i.mf_unlink) refers to ff.o(i.f_unlink) for f_unlink
    fattester.o(i.mf_write) refers to _printf_percent.o(.ARM.Collect$$_printf_percent$$00000000) for _printf_percent
    fattester.o(i.mf_write) refers to _printf_d.o(.ARM.Collect$$_printf_percent$$00000009) for _printf_d
    fattester.o(i.mf_write) refers to _printf_dec.o(.text) for _printf_int_dec
    fattester.o(i.mf_write) refers to noretval__2printf.o(.text) for __2printf
    fattester.o(i.mf_write) refers to ff.o(i.f_write) for f_write
    fattester.o(i.mf_write) refers to exfuns.o(.data) for bw
    mycc936.o(i.ff_convert) refers to w25qxx.o(i.W25QXX_Read) for W25QXX_Read
    mycc936.o(i.ff_convert) refers to fontupd.o(.bss) for ftinfo
    mycc936.o(i.ff_wtoupper) refers to mycc936.o(.constdata) for tbl_lower
    fontupd.o(i.font_init) refers to w25qxx.o(i.W25QXX_Init) for W25QXX_Init
    fontupd.o(i.font_init) refers to w25qxx.o(i.W25QXX_Read) for W25QXX_Read
    fontupd.o(i.font_init) refers to delay.o(i.delay_ms) for delay_ms
    fontupd.o(i.font_init) refers to fontupd.o(.bss) for ftinfo
    fontupd.o(i.fupd_prog) refers to ili93xx.o(i.LCD_ShowString) for LCD_ShowString
    fontupd.o(i.fupd_prog) refers to ili93xx.o(i.LCD_ShowNum) for LCD_ShowNum
    fontupd.o(i.updata_fontx) refers to malloc.o(i.mymalloc) for mymalloc
    fontupd.o(i.updata_fontx) refers to ff.o(i.f_open) for f_open
    fontupd.o(i.updata_fontx) refers to ff.o(i.f_read) for f_read
    fontupd.o(i.updata_fontx) refers to w25qxx.o(i.W25QXX_Write) for W25QXX_Write
    fontupd.o(i.updata_fontx) refers to fontupd.o(i.fupd_prog) for fupd_prog
    fontupd.o(i.updata_fontx) refers to ff.o(i.f_close) for f_close
    fontupd.o(i.updata_fontx) refers to malloc.o(i.myfree) for myfree
    fontupd.o(i.updata_fontx) refers to fontupd.o(.bss) for ftinfo
    fontupd.o(i.update_font) refers to malloc.o(i.mymalloc) for mymalloc
    fontupd.o(i.update_font) refers to malloc.o(i.myfree) for myfree
    fontupd.o(i.update_font) refers to strcpy.o(.text) for strcpy
    fontupd.o(i.update_font) refers to strcat.o(.text) for strcat
    fontupd.o(i.update_font) refers to ff.o(i.f_open) for f_open
    fontupd.o(i.update_font) refers to ili93xx.o(i.LCD_ShowString) for LCD_ShowString
    fontupd.o(i.update_font) refers to fontupd.o(i.fupd_prog) for fupd_prog
    fontupd.o(i.update_font) refers to w25qxx.o(i.W25QXX_Read) for W25QXX_Read
    fontupd.o(i.update_font) refers to w25qxx.o(i.W25QXX_Erase_Sector) for W25QXX_Erase_Sector
    fontupd.o(i.update_font) refers to fontupd.o(i.updata_fontx) for updata_fontx
    fontupd.o(i.update_font) refers to w25qxx.o(i.W25QXX_Write) for W25QXX_Write
    fontupd.o(i.update_font) refers to fontupd.o(.bss) for ftinfo
    fontupd.o(i.update_font) refers to fontupd.o(.constdata) for UNIGBK_PATH
    fontupd.o(.constdata) refers to fontupd.o(.conststring) for .conststring
    text.o(i.Get_HzMat) refers to w25qxx.o(i.W25QXX_Read) for W25QXX_Read
    text.o(i.Get_HzMat) refers to fontupd.o(.bss) for ftinfo
    text.o(i.Show_Font) refers to text.o(i.Get_HzMat) for Get_HzMat
    text.o(i.Show_Font) refers to ili93xx.o(i.LCD_Fast_DrawPoint) for LCD_Fast_DrawPoint
    text.o(i.Show_Font) refers to ili93xx.o(.data) for POINT_COLOR
    text.o(i.Show_Str) refers to ili93xx.o(i.LCD_ShowChar) for LCD_ShowChar
    text.o(i.Show_Str) refers to text.o(i.Show_Font) for Show_Font
    text.o(i.Show_Str_Mid) refers to strlen.o(.text) for strlen
    text.o(i.Show_Str_Mid) refers to text.o(i.Show_Str) for Show_Str
    text.o(i.Show_Str_Mid) refers to ili93xx.o(.bss) for lcddev
    usmart.o(i.TIM4_IRQHandler) refers to usmart_config.o(.data) for usmart_dev
    usmart.o(i.Timer4_Init) refers to sys.o(i.MY_NVIC_Init) for MY_NVIC_Init
    usmart.o(i.usmart_cmd_rec) refers to usmart_str.o(i.usmart_get_fname) for usmart_get_fname
    usmart.o(i.usmart_cmd_rec) refers to usmart_str.o(i.usmart_strcmp) for usmart_strcmp
    usmart.o(i.usmart_cmd_rec) refers to usmart_str.o(i.usmart_get_fparam) for usmart_get_fparam
    usmart.o(i.usmart_cmd_rec) refers to usmart_config.o(.data) for usmart_dev
    usmart.o(i.usmart_exe) refers to _printf_percent.o(.ARM.Collect$$_printf_percent$$00000000) for _printf_percent
    usmart.o(i.usmart_exe) refers to _printf_s.o(.ARM.Collect$$_printf_percent$$00000014) for _printf_s
    usmart.o(i.usmart_exe) refers to _printf_str.o(.text) for _printf_str
    usmart.o(i.usmart_exe) refers to _printf_c.o(.ARM.Collect$$_printf_percent$$00000013) for _printf_c
    usmart.o(i.usmart_exe) refers to _printf_d.o(.ARM.Collect$$_printf_percent$$00000009) for _printf_d
    usmart.o(i.usmart_exe) refers to _printf_dec.o(.text) for _printf_int_dec
    usmart.o(i.usmart_exe) refers to _printf_x.o(.ARM.Collect$$_printf_percent$$0000000C) for _printf_x
    usmart.o(i.usmart_exe) refers to _printf_hex_int.o(.text) for _printf_longlong_hex
    usmart.o(i.usmart_exe) refers to _printf_u.o(.ARM.Collect$$_printf_percent$$0000000A) for _printf_u
    usmart.o(i.usmart_exe) refers to _printf_pad.o(.text) for _printf_pre_padding
    usmart.o(i.usmart_exe) refers to usmart_str.o(i.usmart_get_fname) for usmart_get_fname
    usmart.o(i.usmart_exe) refers to noretval__2printf.o(.text) for __2printf
    usmart.o(i.usmart_exe) refers to usmart_str.o(i.usmart_get_parmpos) for usmart_get_parmpos
    usmart.o(i.usmart_exe) refers to usmart.o(i.usmart_reset_runtime) for usmart_reset_runtime
    usmart.o(i.usmart_exe) refers to usmart.o(i.usmart_get_runtime) for usmart_get_runtime
    usmart.o(i.usmart_exe) refers to usmart_config.o(.data) for usmart_dev
    usmart.o(i.usmart_get_runtime) refers to usmart_config.o(.data) for usmart_dev
    usmart.o(i.usmart_init) refers to usmart.o(i.Timer4_Init) for Timer4_Init
    usmart.o(i.usmart_init) refers to usmart_config.o(.data) for usmart_dev
    usmart.o(i.usmart_reset_runtime) refers to usmart_config.o(.data) for usmart_dev
    usmart.o(i.usmart_scan) refers to usmart.o(i.usmart_sys_cmd_exe) for usmart_sys_cmd_exe
    usmart.o(i.usmart_scan) refers to noretval__2printf.o(.text) for __2printf
    usmart.o(i.usmart_scan) refers to usart.o(.data) for USART_RX_STA
    usmart.o(i.usmart_scan) refers to usart.o(.bss) for USART_RX_BUF
    usmart.o(i.usmart_scan) refers to usmart_config.o(.data) for usmart_dev
    usmart.o(i.usmart_sys_cmd_exe) refers to _printf_percent.o(.ARM.Collect$$_printf_percent$$00000000) for _printf_percent
    usmart.o(i.usmart_sys_cmd_exe) refers to _printf_s.o(.ARM.Collect$$_printf_percent$$00000014) for _printf_s
    usmart.o(i.usmart_sys_cmd_exe) refers to _printf_str.o(.text) for _printf_str
    usmart.o(i.usmart_sys_cmd_exe) refers to _printf_pad.o(.text) for _printf_pre_padding
    usmart.o(i.usmart_sys_cmd_exe) refers to _printf_x.o(.ARM.Collect$$_printf_percent$$0000000C) for _printf_x
    usmart.o(i.usmart_sys_cmd_exe) refers to _printf_hex_int.o(.text) for _printf_longlong_hex
    usmart.o(i.usmart_sys_cmd_exe) refers to _printf_u.o(.ARM.Collect$$_printf_percent$$0000000A) for _printf_u
    usmart.o(i.usmart_sys_cmd_exe) refers to _printf_dec.o(.text) for _printf_int_dec
    usmart.o(i.usmart_sys_cmd_exe) refers to usmart_str.o(i.usmart_get_cmdname) for usmart_get_cmdname
    usmart.o(i.usmart_sys_cmd_exe) refers to usmart_str.o(i.usmart_strcmp) for usmart_strcmp
    usmart.o(i.usmart_sys_cmd_exe) refers to noretval__2printf.o(.text) for __2printf
    usmart.o(i.usmart_sys_cmd_exe) refers to usmart.o(.data) for sys_cmd_tab
    usmart.o(i.usmart_sys_cmd_exe) refers to usmart_config.o(.data) for usmart_dev
    usmart.o(i.usmart_sys_cmd_exe) refers to usmart_str.o(i.usmart_get_fname) for usmart_get_fname
    usmart.o(i.usmart_sys_cmd_exe) refers to usmart_str.o(i.usmart_get_aparm) for usmart_get_aparm
    usmart.o(i.usmart_sys_cmd_exe) refers to usmart_str.o(i.usmart_str2num) for usmart_str2num
    usmart.o(.data) refers to usmart.o(.conststring) for .conststring
    usmart_config.o(.data) refers to usmart.o(i.read_addr) for read_addr
    usmart_config.o(.data) refers to usmart_config.o(.conststring) for .conststring
    usmart_config.o(.data) refers to usmart.o(i.write_addr) for write_addr
    usmart_config.o(.data) refers to wm8978.o(i.WM8978_Write_Reg) for WM8978_Write_Reg
    usmart_config.o(.data) refers to wm8978.o(i.WM8978_Read_Reg) for WM8978_Read_Reg
    usmart_config.o(.data) refers to wm8978.o(i.WM8978_HPvol_Set) for WM8978_HPvol_Set
    usmart_config.o(.data) refers to wm8978.o(i.WM8978_SPKvol_Set) for WM8978_SPKvol_Set
    usmart_config.o(.data) refers to wm8978.o(i.WM8978_3D_Set) for WM8978_3D_Set
    usmart_config.o(.data) refers to wm8978.o(i.WM8978_EQ_3D_Dir) for WM8978_EQ_3D_Dir
    usmart_config.o(.data) refers to wm8978.o(i.WM8978_EQ1_Set) for WM8978_EQ1_Set
    usmart_config.o(.data) refers to wm8978.o(i.WM8978_EQ2_Set) for WM8978_EQ2_Set
    usmart_config.o(.data) refers to wm8978.o(i.WM8978_EQ3_Set) for WM8978_EQ3_Set
    usmart_config.o(.data) refers to wm8978.o(i.WM8978_EQ4_Set) for WM8978_EQ4_Set
    usmart_config.o(.data) refers to wm8978.o(i.WM8978_EQ5_Set) for WM8978_EQ5_Set
    usmart_config.o(.data) refers to usmart.o(i.usmart_init) for usmart_init
    usmart_config.o(.data) refers to usmart.o(i.usmart_cmd_rec) for usmart_cmd_rec
    usmart_config.o(.data) refers to usmart.o(i.usmart_exe) for usmart_exe
    usmart_config.o(.data) refers to usmart.o(i.usmart_scan) for usmart_scan
    usmart_str.o(i.usmart_get_fname) refers to usmart_str.o(i.usmart_strcmp) for usmart_strcmp
    usmart_str.o(i.usmart_get_fname) refers to usmart_str.o(i.usmart_search_nextc) for usmart_search_nextc
    usmart_str.o(i.usmart_get_fparam) refers to usmart_str.o(i.usmart_get_aparm) for usmart_get_aparm
    usmart_str.o(i.usmart_get_fparam) refers to usmart_str.o(i.usmart_str2num) for usmart_str2num
    usmart_str.o(i.usmart_get_fparam) refers to usmart_str.o(i.usmart_get_parmpos) for usmart_get_parmpos
    usmart_str.o(i.usmart_get_fparam) refers to usmart_str.o(i.usmart_strlen) for usmart_strlen
    usmart_str.o(i.usmart_get_fparam) refers to usmart_str.o(i.usmart_strcopy) for usmart_strcopy
    usmart_str.o(i.usmart_get_fparam) refers to usmart_config.o(.data) for usmart_dev
    usmart_str.o(i.usmart_get_parmpos) refers to usmart_config.o(.data) for usmart_dev
    usmart_str.o(i.usmart_str2num) refers to usmart_str.o(i.usmart_pow) for usmart_pow
    wavplay.o(i.wav_buffill) refers to ff.o(i.f_read) for f_read
    wavplay.o(i.wav_buffill) refers to audioplay.o(.bss) for audiodev
    wavplay.o(i.wav_decode_init) refers to _printf_percent.o(.ARM.Collect$$_printf_percent$$00000000) for _printf_percent
    wavplay.o(i.wav_decode_init) refers to _printf_d.o(.ARM.Collect$$_printf_percent$$00000009) for _printf_d
    wavplay.o(i.wav_decode_init) refers to _printf_dec.o(.text) for _printf_int_dec
    wavplay.o(i.wav_decode_init) refers to malloc.o(i.mymalloc) for mymalloc
    wavplay.o(i.wav_decode_init) refers to ff.o(i.f_open) for f_open
    wavplay.o(i.wav_decode_init) refers to ff.o(i.f_read) for f_read
    wavplay.o(i.wav_decode_init) refers to noretval__2printf.o(.text) for __2printf
    wavplay.o(i.wav_decode_init) refers to ff.o(i.f_close) for f_close
    wavplay.o(i.wav_decode_init) refers to malloc.o(i.myfree) for myfree
    wavplay.o(i.wav_get_curtime) refers to llsdiv.o(.text) for __aeabi_ldivmod
    wavplay.o(i.wav_i2s_dma_tx_callback) refers to wavplay.o(.data) for wavwitchbuf
    wavplay.o(i.wav_i2s_dma_tx_callback) refers to audioplay.o(.bss) for audiodev
    wavplay.o(i.wav_play_song) refers to malloc.o(i.mymalloc) for mymalloc
    wavplay.o(i.wav_play_song) refers to wavplay.o(i.wav_decode_init) for wav_decode_init
    wavplay.o(i.wav_play_song) refers to wm8978.o(i.WM8978_I2S_Cfg) for WM8978_I2S_Cfg
    wavplay.o(i.wav_play_song) refers to i2s.o(i.I2S2_Init) for I2S2_Init
    wavplay.o(i.wav_play_song) refers to i2s.o(i.I2S2_SampleRate_Set) for I2S2_SampleRate_Set
    wavplay.o(i.wav_play_song) refers to i2s.o(i.I2S2_TX_DMA_Init) for I2S2_TX_DMA_Init
    wavplay.o(i.wav_play_song) refers to audioplay.o(i.audio_stop) for audio_stop
    wavplay.o(i.wav_play_song) refers to ff.o(i.f_open) for f_open
    wavplay.o(i.wav_play_song) refers to ff.o(i.f_lseek) for f_lseek
    wavplay.o(i.wav_play_song) refers to wavplay.o(i.wav_buffill) for wav_buffill
    wavplay.o(i.wav_play_song) refers to audioplay.o(i.audio_start) for audio_start
    wavplay.o(i.wav_play_song) refers to key.o(i.KEY_Scan) for KEY_Scan
    wavplay.o(i.wav_play_song) refers to wavplay.o(i.wav_get_curtime) for wav_get_curtime
    wavplay.o(i.wav_play_song) refers to audioplay.o(i.audio_msg_show) for audio_msg_show
    wavplay.o(i.wav_play_song) refers to delay.o(i.delay_ms) for delay_ms
    wavplay.o(i.wav_play_song) refers to malloc.o(i.myfree) for myfree
    wavplay.o(i.wav_play_song) refers to audioplay.o(.bss) for audiodev
    wavplay.o(i.wav_play_song) refers to wavplay.o(.bss) for wavctrl
    wavplay.o(i.wav_play_song) refers to wavplay.o(i.wav_i2s_dma_tx_callback) for wav_i2s_dma_tx_callback
    wavplay.o(i.wav_play_song) refers to i2s.o(.data) for i2s_tx_callback
    wavplay.o(i.wav_play_song) refers to wavplay.o(.data) for wavtransferend
    audioplay.o(i.audio_get_tnum) refers to ff.o(i.f_opendir) for f_opendir
    audioplay.o(i.audio_get_tnum) refers to malloc.o(i.mymalloc) for mymalloc
    audioplay.o(i.audio_get_tnum) refers to ff.o(i.f_readdir) for f_readdir
    audioplay.o(i.audio_get_tnum) refers to exfuns.o(i.f_typetell) for f_typetell
    audioplay.o(i.audio_get_tnum) refers to malloc.o(i.myfree) for myfree
    audioplay.o(i.audio_index_show) refers to ili93xx.o(i.LCD_ShowxNum) for LCD_ShowxNum
    audioplay.o(i.audio_index_show) refers to ili93xx.o(i.LCD_ShowChar) for LCD_ShowChar
    audioplay.o(i.audio_msg_show) refers to ili93xx.o(i.LCD_ShowxNum) for LCD_ShowxNum
    audioplay.o(i.audio_msg_show) refers to ili93xx.o(i.LCD_ShowChar) for LCD_ShowChar
    audioplay.o(i.audio_msg_show) refers to ili93xx.o(i.LCD_ShowString) for LCD_ShowString
    audioplay.o(i.audio_msg_show) refers to audioplay.o(.data) for playtime
    audioplay.o(i.audio_play) refers to wm8978.o(i.WM8978_ADDA_Cfg) for WM8978_ADDA_Cfg
    audioplay.o(i.audio_play) refers to wm8978.o(i.WM8978_Input_Cfg) for WM8978_Input_Cfg
    audioplay.o(i.audio_play) refers to wm8978.o(i.WM8978_Output_Cfg) for WM8978_Output_Cfg
    audioplay.o(i.audio_play) refers to text.o(i.Show_Str) for Show_Str
    audioplay.o(i.audio_play) refers to delay.o(i.delay_ms) for delay_ms
    audioplay.o(i.audio_play) refers to ili93xx.o(i.LCD_Fill) for LCD_Fill
    audioplay.o(i.audio_play) refers to ff.o(i.f_opendir) for f_opendir
    audioplay.o(i.audio_play) refers to audioplay.o(i.audio_get_tnum) for audio_get_tnum
    audioplay.o(i.audio_play) refers to malloc.o(i.mymalloc) for mymalloc
    audioplay.o(i.audio_play) refers to ff.o(i.f_readdir) for f_readdir
    audioplay.o(i.audio_play) refers to exfuns.o(i.f_typetell) for f_typetell
    audioplay.o(i.audio_play) refers to ff.o(i.dir_sdi) for dir_sdi
    audioplay.o(i.audio_play) refers to strcpy.o(.text) for strcpy
    audioplay.o(i.audio_play) refers to strcat.o(.text) for strcat
    audioplay.o(i.audio_play) refers to audioplay.o(i.audio_index_show) for audio_index_show
    audioplay.o(i.audio_play) refers to audioplay.o(i.audio_play_song) for audio_play_song
    audioplay.o(i.audio_play) refers to malloc.o(i.myfree) for myfree
    audioplay.o(i.audio_play) refers to ili93xx.o(.bss) for lcddev
    audioplay.o(i.audio_play_song) refers to _printf_percent.o(.ARM.Collect$$_printf_percent$$00000000) for _printf_percent
    audioplay.o(i.audio_play_song) refers to _printf_s.o(.ARM.Collect$$_printf_percent$$00000014) for _printf_s
    audioplay.o(i.audio_play_song) refers to _printf_str.o(.text) for _printf_str
    audioplay.o(i.audio_play_song) refers to exfuns.o(i.f_typetell) for f_typetell
    audioplay.o(i.audio_play_song) refers to wavplay.o(i.wav_play_song) for wav_play_song
    audioplay.o(i.audio_play_song) refers to noretval__2printf.o(.text) for __2printf
    audioplay.o(i.audio_start) refers to i2s.o(i.I2S_Play_Start) for I2S_Play_Start
    audioplay.o(i.audio_start) refers to audioplay.o(.bss) for audiodev
    audioplay.o(i.audio_stop) refers to i2s.o(i.I2S_Play_Stop) for I2S_Play_Stop
    audioplay.o(i.audio_stop) refers to audioplay.o(.bss) for audiodev
    use_no_semi_2.o(.text) refers (Special) to use_no_semi.o(.text) for __use_no_semihosting_swi
    llsdiv.o(.text) refers to lludivv7m.o(.text) for __aeabi_uldivmod
    __2printf.o(.text) refers to _printf_char_file.o(.text) for _printf_char_file
    __2printf.o(.text) refers to usart.o(.data) for __stdout
    noretval__2printf.o(.text) refers to _printf_char_file.o(.text) for _printf_char_file
    noretval__2printf.o(.text) refers to usart.o(.data) for __stdout
    __printf.o(.text) refers to _printf_percent.o(.ARM.Collect$$_printf_percent$$00000000) for _printf_percent
    _printf_str.o(.text) refers (Special) to _printf_char.o(.text) for _printf_cs_common
    _printf_str.o(.text) refers (Weak) to _printf_pad.o(.text) for _printf_pre_padding
    _printf_str.o(.text) refers (Weak) to _printf_pad.o(.text) for _printf_post_padding
    _printf_dec.o(.text) refers to _printf_intcommon.o(.text) for _printf_int_common
    _printf_hex_ll.o(.text) refers to _printf_intcommon.o(.text) for _printf_int_common
    _printf_hex_ll.o(.text) refers to _printf_hex_ll.o(.constdata) for .constdata
    _printf_hex_int.o(.text) refers to _printf_intcommon.o(.text) for _printf_int_common
    _printf_hex_int.o(.text) refers to _printf_hex_int.o(.constdata) for .constdata
    _printf_hex_int_ll.o(.text) refers to _printf_intcommon.o(.text) for _printf_int_common
    _printf_hex_int_ll.o(.text) refers to _printf_hex_int_ll.o(.constdata) for .constdata
    _printf_hex_ptr.o(.text) refers to _printf_intcommon.o(.text) for _printf_int_common
    _printf_hex_ptr.o(.text) refers to _printf_hex_ptr.o(.constdata) for .constdata
    _printf_hex_int_ptr.o(.text) refers to _printf_intcommon.o(.text) for _printf_int_common
    _printf_hex_int_ptr.o(.text) refers to _printf_hex_int_ptr.o(.constdata) for .constdata
    _printf_hex_ll_ptr.o(.text) refers to _printf_intcommon.o(.text) for _printf_int_common
    _printf_hex_ll_ptr.o(.text) refers to _printf_hex_ll_ptr.o(.constdata) for .constdata
    _printf_hex_int_ll_ptr.o(.text) refers to _printf_intcommon.o(.text) for _printf_int_common
    _printf_hex_int_ll_ptr.o(.text) refers to _printf_hex_int_ll_ptr.o(.constdata) for .constdata
    __printf_flags.o(.text) refers to _printf_percent.o(.ARM.Collect$$_printf_percent$$00000000) for _printf_percent
    __printf_flags.o(.text) refers to __printf_flags.o(.constdata) for .constdata
    __printf_ss.o(.text) refers to _printf_percent.o(.ARM.Collect$$_printf_percent$$00000000) for _printf_percent
    __printf_flags_ss.o(.text) refers to _printf_percent.o(.ARM.Collect$$_printf_percent$$00000000) for _printf_percent
    __printf_flags_ss.o(.text) refers to __printf_flags_ss.o(.constdata) for .constdata
    __printf_wp.o(.text) refers to __printf_wp.o(i._is_digit) for _is_digit
    __printf_wp.o(.text) refers to _printf_percent.o(.ARM.Collect$$_printf_percent$$00000000) for _printf_percent
    __printf_flags_wp.o(.text) refers to __printf_wp.o(i._is_digit) for _is_digit
    __printf_flags_wp.o(.text) refers to _printf_percent.o(.ARM.Collect$$_printf_percent$$00000000) for _printf_percent
    __printf_flags_wp.o(.text) refers to __printf_flags_wp.o(.constdata) for .constdata
    __printf_ss_wp.o(.text) refers to __printf_wp.o(i._is_digit) for _is_digit
    __printf_ss_wp.o(.text) refers to _printf_percent.o(.ARM.Collect$$_printf_percent$$00000000) for _printf_percent
    __printf_flags_ss_wp.o(.text) refers to __printf_wp.o(i._is_digit) for _is_digit
    __printf_flags_ss_wp.o(.text) refers to _printf_percent.o(.ARM.Collect$$_printf_percent$$00000000) for _printf_percent
    __printf_flags_ss_wp.o(.text) refers to __printf_flags_ss_wp.o(.constdata) for .constdata
    _printf_c.o(.ARM.Collect$$_printf_percent$$00000013) refers (Weak) to _printf_char.o(.text) for _printf_char
    _printf_s.o(.ARM.Collect$$_printf_percent$$00000014) refers (Weak) to _printf_char.o(.text) for _printf_string
    _printf_x.o(.ARM.Collect$$_printf_percent$$0000000C) refers (Weak) to _printf_hex_int.o(.text) for _printf_int_hex
    _printf_d.o(.ARM.Collect$$_printf_percent$$00000009) refers (Weak) to _printf_dec.o(.text) for _printf_int_dec
    _printf_u.o(.ARM.Collect$$_printf_percent$$0000000A) refers (Weak) to _printf_dec.o(.text) for _printf_int_dec
    _printf_percent.o(.ARM.Collect$$_printf_percent$$00000000) refers (Special) to _printf_percent_end.o(.ARM.Collect$$_printf_percent$$00000017) for _printf_percent_end
    rt_memcpy_v6.o(.text) refers to rt_memcpy_w.o(.text) for __aeabi_memcpy4
    __main.o(!!!main) refers to __rtentry.o(.ARM.Collect$$rtentry$$00000000) for __rt_entry
    dfixu.o(x$fpl$dfixu) refers (Special) to usenofp.o(x$fpl$usenofp) for __I$use$fp
    dfixu.o(x$fpl$dfixu) refers to dnaninf.o(x$fpl$dnaninf) for __fpl_dnaninf
    dfixu.o(x$fpl$dfixur) refers (Special) to usenofp.o(x$fpl$usenofp) for __I$use$fp
    dfixu.o(x$fpl$dfixur) refers to dnaninf.o(x$fpl$dnaninf) for __fpl_dnaninf
    dflt_clz.o(x$fpl$dfltu) refers (Special) to usenofp.o(x$fpl$usenofp) for __I$use$fp
    dflt_clz.o(x$fpl$dflt) refers (Special) to usenofp.o(x$fpl$usenofp) for __I$use$fp
    dflt_clz.o(x$fpl$dfltn) refers (Special) to usenofp.o(x$fpl$usenofp) for __I$use$fp
    dmul.o(x$fpl$dmul) refers (Special) to usenofp.o(x$fpl$usenofp) for __I$use$fp
    dmul.o(x$fpl$dmul) refers to dretinf.o(x$fpl$dretinf) for __fpl_dretinf
    dmul.o(x$fpl$dmul) refers to dnaninf.o(x$fpl$dnaninf) for __fpl_dnaninf
    __rtentry.o(.ARM.Collect$$rtentry$$00000000) refers (Special) to __rtentry2.o(.ARM.Collect$$rtentry$$0000000A) for __rt_entry_li
    __rtentry.o(.ARM.Collect$$rtentry$$00000000) refers (Special) to __rtentry2.o(.ARM.Collect$$rtentry$$0000000D) for __rt_entry_main
    __rtentry.o(.ARM.Collect$$rtentry$$00000000) refers (Special) to __rtentry2.o(.ARM.Collect$$rtentry$$0000000C) for __rt_entry_postli_1
    __rtentry.o(.ARM.Collect$$rtentry$$00000000) refers (Special) to __rtentry2.o(.ARM.Collect$$rtentry$$00000009) for __rt_entry_postsh_1
    __rtentry.o(.ARM.Collect$$rtentry$$00000000) refers (Special) to __rtentry2.o(.ARM.Collect$$rtentry$$00000002) for __rt_entry_presh_1
    __rtentry.o(.ARM.Collect$$rtentry$$00000000) refers (Special) to __rtentry4.o(.ARM.Collect$$rtentry$$00000004) for __rt_entry_sh
    _printf_intcommon.o(.text) refers (Weak) to _printf_pad.o(.text) for _printf_pre_padding
    _printf_intcommon.o(.text) refers (Weak) to _printf_pad.o(.text) for _printf_pre_padding
    _printf_intcommon.o(.text) refers (Weak) to _printf_pad.o(.text) for _printf_post_padding
    _printf_char.o(.text) refers (Weak) to _printf_str.o(.text) for _printf_str
    _printf_char_file.o(.text) refers to _printf_char_common.o(.text) for _printf_char_common
    _printf_char_file.o(.text) refers to ferror.o(.text) for ferror
    _printf_char_file.o(.text) refers to usart.o(i.fputc) for fputc
    dnaninf.o(x$fpl$dnaninf) refers (Special) to usenofp.o(x$fpl$usenofp) for __I$use$fp
    dretinf.o(x$fpl$dretinf) refers (Special) to usenofp.o(x$fpl$usenofp) for __I$use$fp
    __rtentry2.o(.ARM.Collect$$rtentry$$00000008) refers to boardinit2.o(.text) for _platform_post_stackheap_init
    __rtentry2.o(.ARM.Collect$$rtentry$$0000000A) refers to libinit.o(.ARM.Collect$$libinit$$00000000) for __rt_lib_init
    __rtentry2.o(.ARM.Collect$$rtentry$$0000000B) refers to boardinit3.o(.text) for _platform_post_lib_init
    __rtentry2.o(.ARM.Collect$$rtentry$$0000000D) refers to test.o(i.main) for main
    __rtentry2.o(.ARM.Collect$$rtentry$$0000000D) refers to exit.o(.text) for exit
    __rtentry2.o(.ARM.exidx) refers to __rtentry2.o(.ARM.Collect$$rtentry$$00000001) for .ARM.Collect$$rtentry$$00000001
    __rtentry2.o(.ARM.exidx) refers to __rtentry2.o(.ARM.Collect$$rtentry$$00000008) for .ARM.Collect$$rtentry$$00000008
    __rtentry2.o(.ARM.exidx) refers to __rtentry2.o(.ARM.Collect$$rtentry$$0000000A) for .ARM.Collect$$rtentry$$0000000A
    __rtentry2.o(.ARM.exidx) refers to __rtentry2.o(.ARM.Collect$$rtentry$$0000000B) for .ARM.Collect$$rtentry$$0000000B
    __rtentry2.o(.ARM.exidx) refers to __rtentry2.o(.ARM.Collect$$rtentry$$0000000D) for .ARM.Collect$$rtentry$$0000000D
    __rtentry4.o(.ARM.Collect$$rtentry$$00000004) refers to sys_stackheap_outer.o(.text) for __user_setup_stackheap
    __rtentry4.o(.ARM.exidx) refers to __rtentry4.o(.ARM.Collect$$rtentry$$00000004) for .ARM.Collect$$rtentry$$00000004
    aeabi_ldiv0_sigfpe.o(.text) refers to rt_div0.o(.text) for __rt_div0
    _printf_char_common.o(.text) refers to __printf_flags_ss_wp.o(.text) for __printf
    sys_stackheap_outer.o(.text) refers to libspace.o(.text) for __user_perproc_libspace
    sys_stackheap_outer.o(.text) refers to startup_stm32f40_41xxx.o(.text) for __user_initial_stackheap
    rt_div0.o(.text) refers to defsig_fpe_outer.o(.text) for __rt_SIGFPE
    exit.o(.text) refers to rtexit.o(.ARM.Collect$$rtexit$$00000000) for __rt_exit
    libinit.o(.ARM.Collect$$libinit$$00000000) refers (Special) to libinit2.o(.ARM.Collect$$libinit$$0000002E) for __rt_lib_init_alloca_1
    libinit.o(.ARM.Collect$$libinit$$00000000) refers (Special) to libinit2.o(.ARM.Collect$$libinit$$0000002C) for __rt_lib_init_argv_1
    libinit.o(.ARM.Collect$$libinit$$00000000) refers (Special) to libinit2.o(.ARM.Collect$$libinit$$0000001B) for __rt_lib_init_atexit_1
    libinit.o(.ARM.Collect$$libinit$$00000000) refers (Special) to libinit2.o(.ARM.Collect$$libinit$$00000021) for __rt_lib_init_clock_1
    libinit.o(.ARM.Collect$$libinit$$00000000) refers (Special) to libinit2.o(.ARM.Collect$$libinit$$00000032) for __rt_lib_init_cpp_1
    libinit.o(.ARM.Collect$$libinit$$00000000) refers (Special) to libinit2.o(.ARM.Collect$$libinit$$00000030) for __rt_lib_init_exceptions_1
    libinit.o(.ARM.Collect$$libinit$$00000000) refers (Special) to libinit2.o(.ARM.Collect$$libinit$$00000001) for __rt_lib_init_fp_1
    libinit.o(.ARM.Collect$$libinit$$00000000) refers (Special) to libinit2.o(.ARM.Collect$$libinit$$0000001F) for __rt_lib_init_fp_trap_1
    libinit.o(.ARM.Collect$$libinit$$00000000) refers (Special) to libinit2.o(.ARM.Collect$$libinit$$00000023) for __rt_lib_init_getenv_1
    libinit.o(.ARM.Collect$$libinit$$00000000) refers (Special) to libinit2.o(.ARM.Collect$$libinit$$0000000A) for __rt_lib_init_heap_1
    libinit.o(.ARM.Collect$$libinit$$00000000) refers (Special) to libinit2.o(.ARM.Collect$$libinit$$00000011) for __rt_lib_init_lc_collate_1
    libinit.o(.ARM.Collect$$libinit$$00000000) refers (Special) to libinit2.o(.ARM.Collect$$libinit$$00000013) for __rt_lib_init_lc_ctype_1
    libinit.o(.ARM.Collect$$libinit$$00000000) refers (Special) to libinit2.o(.ARM.Collect$$libinit$$00000015) for __rt_lib_init_lc_monetary_1
    libinit.o(.ARM.Collect$$libinit$$00000000) refers (Special) to libinit2.o(.ARM.Collect$$libinit$$00000017) for __rt_lib_init_lc_numeric_1
    libinit.o(.ARM.Collect$$libinit$$00000000) refers (Special) to libinit2.o(.ARM.Collect$$libinit$$00000019) for __rt_lib_init_lc_time_1
    libinit.o(.ARM.Collect$$libinit$$00000000) refers (Special) to libinit2.o(.ARM.Collect$$libinit$$00000004) for __rt_lib_init_preinit_1
    libinit.o(.ARM.Collect$$libinit$$00000000) refers (Special) to libinit2.o(.ARM.Collect$$libinit$$0000000E) for __rt_lib_init_rand_1
    libinit.o(.ARM.Collect$$libinit$$00000000) refers (Special) to libinit2.o(.ARM.Collect$$libinit$$00000033) for __rt_lib_init_return
    libinit.o(.ARM.Collect$$libinit$$00000000) refers (Special) to libinit2.o(.ARM.Collect$$libinit$$0000001D) for __rt_lib_init_signal_1
    libinit.o(.ARM.Collect$$libinit$$00000000) refers (Special) to libinit2.o(.ARM.Collect$$libinit$$00000025) for __rt_lib_init_stdio_1
    libinit.o(.ARM.Collect$$libinit$$00000000) refers (Special) to libinit2.o(.ARM.Collect$$libinit$$0000000C) for __rt_lib_init_user_alloc_1
    libspace.o(.text) refers to libspace.o(.bss) for __libspace_start
    rtexit.o(.ARM.Collect$$rtexit$$00000000) refers (Special) to rtexit2.o(.ARM.Collect$$rtexit$$00000004) for __rt_exit_exit
    rtexit.o(.ARM.Collect$$rtexit$$00000000) refers (Special) to rtexit2.o(.ARM.Collect$$rtexit$$00000003) for __rt_exit_ls
    rtexit.o(.ARM.Collect$$rtexit$$00000000) refers (Special) to rtexit2.o(.ARM.Collect$$rtexit$$00000002) for __rt_exit_prels_1
    rtexit.o(.ARM.exidx) refers (Special) to rtexit2.o(.ARM.Collect$$rtexit$$00000004) for __rt_exit_exit
    rtexit.o(.ARM.exidx) refers (Special) to rtexit2.o(.ARM.Collect$$rtexit$$00000003) for __rt_exit_ls
    rtexit.o(.ARM.exidx) refers (Special) to rtexit2.o(.ARM.Collect$$rtexit$$00000002) for __rt_exit_prels_1
    rtexit.o(.ARM.exidx) refers to rtexit.o(.ARM.Collect$$rtexit$$00000000) for .ARM.Collect$$rtexit$$00000000
    defsig_fpe_outer.o(.text) refers to defsig_fpe_inner.o(.text) for __rt_SIGFPE_inner
    defsig_fpe_outer.o(.text) refers to defsig_exit.o(.text) for __sig_exit
    defsig_fpe_formal.o(.text) refers to rt_raise.o(.text) for __rt_raise
    libinit2.o(.ARM.Collect$$libinit$$00000001) refers to fpinit.o(x$fpl$fpinit) for _fp_init
    libinit2.o(.ARM.Collect$$libinit$$00000010) refers to libinit2.o(.ARM.Collect$$libinit$$0000000F) for .ARM.Collect$$libinit$$0000000F
    libinit2.o(.ARM.Collect$$libinit$$00000012) refers to libinit2.o(.ARM.Collect$$libinit$$0000000F) for .ARM.Collect$$libinit$$0000000F
    libinit2.o(.ARM.Collect$$libinit$$00000014) refers to libinit2.o(.ARM.Collect$$libinit$$0000000F) for .ARM.Collect$$libinit$$0000000F
    libinit2.o(.ARM.Collect$$libinit$$00000016) refers to libinit2.o(.ARM.Collect$$libinit$$0000000F) for .ARM.Collect$$libinit$$0000000F
    libinit2.o(.ARM.Collect$$libinit$$00000018) refers to libinit2.o(.ARM.Collect$$libinit$$0000000F) for .ARM.Collect$$libinit$$0000000F
    libinit2.o(.ARM.Collect$$libinit$$00000026) refers to argv_veneer.o(.emb_text) for __ARM_argv_veneer
    libinit2.o(.ARM.Collect$$libinit$$00000027) refers to argv_veneer.o(.emb_text) for __ARM_argv_veneer
    rtexit2.o(.ARM.Collect$$rtexit$$00000003) refers to libshutdown.o(.ARM.Collect$$libshutdown$$00000000) for __rt_lib_shutdown
    rtexit2.o(.ARM.Collect$$rtexit$$00000004) refers to usart.o(i._sys_exit) for _sys_exit
    rtexit2.o(.ARM.exidx) refers to rtexit2.o(.ARM.Collect$$rtexit$$00000001) for .ARM.Collect$$rtexit$$00000001
    rtexit2.o(.ARM.exidx) refers to rtexit2.o(.ARM.Collect$$rtexit$$00000003) for .ARM.Collect$$rtexit$$00000003
    rtexit2.o(.ARM.exidx) refers to rtexit2.o(.ARM.Collect$$rtexit$$00000004) for .ARM.Collect$$rtexit$$00000004
    rt_raise.o(.text) refers to __raise.o(.text) for __raise
    rt_raise.o(.text) refers to usart.o(i._sys_exit) for _sys_exit
    defsig_exit.o(.text) refers to usart.o(i._sys_exit) for _sys_exit
    defsig_fpe_inner.o(.text) refers to defsig_general.o(.text) for __default_signal_display
    argv_veneer.o(.emb_text) refers to no_argv.o(.text) for __ARM_get_argv
    __raise.o(.text) refers to defsig.o(CL$$defsig) for __default_signal_handler
    defsig_general.o(.text) refers to sys_wrch.o(.text) for _ttywrch
    _get_argv_nomalloc.o(.text) refers (Special) to hrguard.o(.text) for __heap_region$guard
    _get_argv_nomalloc.o(.text) refers to defsig_rtmem_outer.o(.text) for __rt_SIGRTMEM
    _get_argv_nomalloc.o(.text) refers to sys_command.o(.text) for _sys_command_string
    libshutdown.o(.ARM.Collect$$libshutdown$$00000000) refers (Special) to libshutdown2.o(.ARM.Collect$$libshutdown$$00000006) for __rt_lib_shutdown_fp_trap_1
    libshutdown.o(.ARM.Collect$$libshutdown$$00000000) refers (Special) to libshutdown2.o(.ARM.Collect$$libshutdown$$0000000E) for __rt_lib_shutdown_heap_1
    libshutdown.o(.ARM.Collect$$libshutdown$$00000000) refers (Special) to libshutdown2.o(.ARM.Collect$$libshutdown$$0000000F) for __rt_lib_shutdown_return
    libshutdown.o(.ARM.Collect$$libshutdown$$00000000) refers (Special) to libshutdown2.o(.ARM.Collect$$libshutdown$$00000009) for __rt_lib_shutdown_signal_1
    libshutdown.o(.ARM.Collect$$libshutdown$$00000000) refers (Special) to libshutdown2.o(.ARM.Collect$$libshutdown$$00000003) for __rt_lib_shutdown_stdio_1
    libshutdown.o(.ARM.Collect$$libshutdown$$00000000) refers (Special) to libshutdown2.o(.ARM.Collect$$libshutdown$$0000000B) for __rt_lib_shutdown_user_alloc_1
    sys_wrch.o(.text) refers (Special) to use_no_semi.o(.text) for __I$use$semihosting
    sys_wrch.o(.text) refers (Special) to indicate_semi.o(.text) for __semihosting_library_function
    sys_command.o(.text) refers (Special) to use_no_semi.o(.text) for __I$use$semihosting
    sys_command.o(.text) refers (Special) to indicate_semi.o(.text) for __semihosting_library_function
    defsig_rtmem_outer.o(.text) refers to defsig_rtmem_inner.o(.text) for __rt_SIGRTMEM_inner
    defsig_rtmem_outer.o(.text) refers to defsig_exit.o(.text) for __sig_exit
    defsig_rtmem_formal.o(.text) refers to rt_raise.o(.text) for __rt_raise
    defsig.o(CL$$defsig) refers to defsig_fpe_inner.o(.text) for __rt_SIGFPE_inner
    defsig.o(CL$$defsig) refers to defsig_rtmem_inner.o(.text) for __rt_SIGRTMEM_inner
    defsig_abrt_inner.o(.text) refers to defsig_general.o(.text) for __default_signal_display
    defsig_rtred_inner.o(.text) refers to defsig_general.o(.text) for __default_signal_display
    defsig_rtmem_inner.o(.text) refers to defsig_general.o(.text) for __default_signal_display
    defsig_stak_inner.o(.text) refers to defsig_general.o(.text) for __default_signal_display
    defsig_pvfn_inner.o(.text) refers to defsig_general.o(.text) for __default_signal_display
    defsig_cppl_inner.o(.text) refers to defsig_general.o(.text) for __default_signal_display
    defsig_segv_inner.o(.text) refers to defsig_general.o(.text) for __default_signal_display
    defsig_other.o(.text) refers to defsig_general.o(.text) for __default_signal_display


==============================================================================

Removing Unused input sections from the image.

    Removing test.o(.rev16_text), (4 bytes).
    Removing test.o(.revsh_text), (4 bytes).
    Removing delay.o(.rev16_text), (4 bytes).
    Removing delay.o(.revsh_text), (4 bytes).
    Removing sys.o(.rev16_text), (4 bytes).
    Removing sys.o(.revsh_text), (4 bytes).
    Removing sys.o(.emb_text), (6 bytes).
    Removing sys.o(i.Ex_NVIC_Config), (180 bytes).
    Removing sys.o(i.Sys_Soft_Reset), (16 bytes).
    Removing sys.o(i.Sys_Standby), (76 bytes).
    Removing sys.o(i.WFI_SET), (4 bytes).
    Removing usart.o(.rev16_text), (4 bytes).
    Removing usart.o(.revsh_text), (4 bytes).
    Removing led.o(.rev16_text), (4 bytes).
    Removing led.o(.revsh_text), (4 bytes).
    Removing ili93xx.o(.rev16_text), (4 bytes).
    Removing ili93xx.o(.revsh_text), (4 bytes).
    Removing ili93xx.o(i.LCD_BGR2RGB), (26 bytes).
    Removing ili93xx.o(i.LCD_Color_Fill), (96 bytes).
    Removing ili93xx.o(i.LCD_DisplayOff), (96 bytes).
    Removing ili93xx.o(i.LCD_DisplayOn), (96 bytes).
    Removing ili93xx.o(i.LCD_DrawLine), (176 bytes).
    Removing ili93xx.o(i.LCD_DrawPoint), (36 bytes).
    Removing ili93xx.o(i.LCD_DrawRectangle), (60 bytes).
    Removing ili93xx.o(i.LCD_Draw_Circle), (152 bytes).
    Removing ili93xx.o(i.LCD_ReadPoint), (364 bytes).
    Removing ili93xx.o(i.LCD_Set_Window), (532 bytes).
    Removing ili93xx.o(i.LCD_ShowNum), (148 bytes).
    Removing ili93xx.o(i.LCD_WriteRAM), (12 bytes).
    Removing ili93xx.o(i.opt_delay), (14 bytes).
    Removing key.o(.rev16_text), (4 bytes).
    Removing key.o(.revsh_text), (4 bytes).
    Removing sdio_sdcard.o(.rev16_text), (4 bytes).
    Removing sdio_sdcard.o(.revsh_text), (4 bytes).
    Removing sdio_sdcard.o(i.SD_GetState), (26 bytes).
    Removing sdio_sdcard.o(i.SD_PowerOFF), (20 bytes).
    Removing sdio_sdcard.o(i.SD_SendStatus), (60 bytes).
    Removing spi.o(.rev16_text), (4 bytes).
    Removing spi.o(.revsh_text), (4 bytes).
    Removing w25qxx.o(.rev16_text), (4 bytes).
    Removing w25qxx.o(.revsh_text), (4 bytes).
    Removing w25qxx.o(i.W25QXX_Erase_Chip), (44 bytes).
    Removing w25qxx.o(i.W25QXX_PowerDown), (40 bytes).
    Removing w25qxx.o(i.W25QXX_WAKEUP), (40 bytes).
    Removing w25qxx.o(i.W25QXX_Write_Disable), (32 bytes).
    Removing w25qxx.o(i.W25QXX_Write_SR), (40 bytes).
    Removing myiic.o(.rev16_text), (4 bytes).
    Removing myiic.o(.revsh_text), (4 bytes).
    Removing myiic.o(i.IIC_Ack), (80 bytes).
    Removing myiic.o(i.IIC_NAck), (80 bytes).
    Removing myiic.o(i.IIC_Read_Byte), (108 bytes).
    Removing i2s.o(.rev16_text), (4 bytes).
    Removing i2s.o(.revsh_text), (4 bytes).
    Removing wm8978.o(.rev16_text), (4 bytes).
    Removing wm8978.o(.revsh_text), (4 bytes).
    Removing wm8978.o(i.WM8978_MIC_Gain), (28 bytes).
    Removing malloc.o(.rev16_text), (4 bytes).
    Removing malloc.o(.revsh_text), (4 bytes).
    Removing malloc.o(i.mymemcpy), (26 bytes).
    Removing malloc.o(i.myrealloc), (68 bytes).
    Removing ff.o(i.dir_remove), (106 bytes).
    Removing ff.o(i.f_chmod), (112 bytes).
    Removing ff.o(i.f_closedir), (22 bytes).
    Removing ff.o(i.f_getfree), (258 bytes).
    Removing ff.o(i.f_getlabel), (190 bytes).
    Removing ff.o(i.f_gets), (82 bytes).
    Removing ff.o(i.f_mkdir), (380 bytes).
    Removing ff.o(i.f_mkfs), (1600 bytes).
    Removing ff.o(i.f_printf), (628 bytes).
    Removing ff.o(i.f_putc), (64 bytes).
    Removing ff.o(i.f_puts), (74 bytes).
    Removing ff.o(i.f_rename), (314 bytes).
    Removing ff.o(i.f_setlabel), (488 bytes).
    Removing ff.o(i.f_stat), (84 bytes).
    Removing ff.o(i.f_truncate), (184 bytes).
    Removing ff.o(i.f_unlink), (194 bytes).
    Removing ff.o(i.f_utime), (110 bytes).
    Removing ff.o(i.f_write), (490 bytes).
    Removing ff.o(i.putc_bfd), (68 bytes).
    Removing diskio.o(.rev16_text), (4 bytes).
    Removing diskio.o(.revsh_text), (4 bytes).
    Removing exfuns.o(.rev16_text), (4 bytes).
    Removing exfuns.o(.revsh_text), (4 bytes).
    Removing exfuns.o(i.exf_getfree), (74 bytes).
    Removing fattester.o(.rev16_text), (4 bytes).
    Removing fattester.o(.revsh_text), (4 bytes).
    Removing fattester.o(i.mf_close), (20 bytes).
    Removing fattester.o(i.mf_closedir), (16 bytes).
    Removing fattester.o(i.mf_fmkfs), (20 bytes).
    Removing fattester.o(i.mf_getlabel), (132 bytes).
    Removing fattester.o(i.mf_gets), (76 bytes).
    Removing fattester.o(i.mf_lseek), (20 bytes).
    Removing fattester.o(i.mf_mkdir), (12 bytes).
    Removing fattester.o(i.mf_mount), (24 bytes).
    Removing fattester.o(i.mf_open), (28 bytes).
    Removing fattester.o(i.mf_opendir), (20 bytes).
    Removing fattester.o(i.mf_putc), (24 bytes).
    Removing fattester.o(i.mf_puts), (24 bytes).
    Removing fattester.o(i.mf_read), (344 bytes).
    Removing fattester.o(i.mf_readdir), (404 bytes).
    Removing fattester.o(i.mf_rename), (16 bytes).
    Removing fattester.o(i.mf_scan_files), (144 bytes).
    Removing fattester.o(i.mf_setlabel), (92 bytes).
    Removing fattester.o(i.mf_showfree), (168 bytes).
    Removing fattester.o(i.mf_size), (12 bytes).
    Removing fattester.o(i.mf_tell), (12 bytes).
    Removing fattester.o(i.mf_unlink), (12 bytes).
    Removing fattester.o(i.mf_write), (184 bytes).
    Removing mycc936.o(.rev16_text), (4 bytes).
    Removing mycc936.o(.revsh_text), (4 bytes).
    Removing fontupd.o(.rev16_text), (4 bytes).
    Removing fontupd.o(.revsh_text), (4 bytes).
    Removing fontupd.o(i.fupd_prog), (156 bytes).
    Removing fontupd.o(i.updata_fontx), (356 bytes).
    Removing fontupd.o(i.update_font), (916 bytes).
    Removing fontupd.o(.constdata), (16 bytes).
    Removing fontupd.o(.conststring), (96 bytes).
    Removing text.o(.rev16_text), (4 bytes).
    Removing text.o(.revsh_text), (4 bytes).
    Removing text.o(i.Show_Str_Mid), (112 bytes).
    Removing usmart.o(.rev16_text), (4 bytes).
    Removing usmart.o(.revsh_text), (4 bytes).
    Removing usmart_config.o(.rev16_text), (4 bytes).
    Removing usmart_config.o(.revsh_text), (4 bytes).
    Removing usmart_str.o(.rev16_text), (4 bytes).
    Removing usmart_str.o(.revsh_text), (4 bytes).
    Removing wavplay.o(.rev16_text), (4 bytes).
    Removing wavplay.o(.revsh_text), (4 bytes).
    Removing audioplay.o(.rev16_text), (4 bytes).
    Removing audioplay.o(.revsh_text), (4 bytes).

130 unused section(s) (total 11960 bytes) removed from the image.

==============================================================================

Image Symbol Table

    Local Symbols

    Symbol Name                              Value     Ov Type        Size  Object(Section)

    ../clib/angel/boardlib.s                 0x00000000   Number         0  boardshut.o ABSOLUTE
    ../clib/angel/boardlib.s                 0x00000000   Number         0  boardinit3.o ABSOLUTE
    ../clib/angel/boardlib.s                 0x00000000   Number         0  boardinit2.o ABSOLUTE
    ../clib/angel/boardlib.s                 0x00000000   Number         0  boardinit1.o ABSOLUTE
    ../clib/angel/dczerorl2.s                0x00000000   Number         0  __dczerorl2.o ABSOLUTE
    ../clib/angel/handlers.s                 0x00000000   Number         0  __scatter_zi.o ABSOLUTE
    ../clib/angel/kernel.s                   0x00000000   Number         0  rtexit2.o ABSOLUTE
    ../clib/angel/kernel.s                   0x00000000   Number         0  __rtentry4.o ABSOLUTE
    ../clib/angel/kernel.s                   0x00000000   Number         0  __rtentry2.o ABSOLUTE
    ../clib/angel/kernel.s                   0x00000000   Number         0  rtexit.o ABSOLUTE
    ../clib/angel/kernel.s                   0x00000000   Number         0  __rtentry.o ABSOLUTE
    ../clib/angel/rt.s                       0x00000000   Number         0  aeabi_ldiv0_sigfpe.o ABSOLUTE
    ../clib/angel/rt.s                       0x00000000   Number         0  aeabi_ldiv0.o ABSOLUTE
    ../clib/angel/rt.s                       0x00000000   Number         0  rt_div0.o ABSOLUTE
    ../clib/angel/rt.s                       0x00000000   Number         0  rt_raise.o ABSOLUTE
    ../clib/angel/scatter.s                  0x00000000   Number         0  __scatter.o ABSOLUTE
    ../clib/angel/startup.s                  0x00000000   Number         0  __main.o ABSOLUTE
    ../clib/angel/sys.s                      0x00000000   Number         0  libspace.o ABSOLUTE
    ../clib/angel/sys.s                      0x00000000   Number         0  indicate_semi.o ABSOLUTE
    ../clib/angel/sys.s                      0x00000000   Number         0  use_no_semi_2.o ABSOLUTE
    ../clib/angel/sys.s                      0x00000000   Number         0  use_no_semi.o ABSOLUTE
    ../clib/angel/sys.s                      0x00000000   Number         0  sys_stackheap_outer.o ABSOLUTE
    ../clib/angel/sysapp.c                   0x00000000   Number         0  sys_command.o ABSOLUTE
    ../clib/angel/sysapp.c                   0x00000000   Number         0  sys_wrch.o ABSOLUTE
    ../clib/armsys.c                         0x00000000   Number         0  no_argv.o ABSOLUTE
    ../clib/armsys.c                         0x00000000   Number         0  _get_argv_nomalloc.o ABSOLUTE
    ../clib/armsys.c                         0x00000000   Number         0  argv_veneer.o ABSOLUTE
    ../clib/armsys.c                         0x00000000   Number         0  argv_veneer.o ABSOLUTE
    ../clib/heapalloc.c                      0x00000000   Number         0  hrguard.o ABSOLUTE
    ../clib/heapaux.c                        0x00000000   Number         0  heapauxi.o ABSOLUTE
    ../clib/libinit.s                        0x00000000   Number         0  libshutdown2.o ABSOLUTE
    ../clib/libinit.s                        0x00000000   Number         0  libinit.o ABSOLUTE
    ../clib/libinit.s                        0x00000000   Number         0  libshutdown.o ABSOLUTE
    ../clib/libinit.s                        0x00000000   Number         0  libinit2.o ABSOLUTE
    ../clib/longlong.s                       0x00000000   Number         0  lludivv7m.o ABSOLUTE
    ../clib/longlong.s                       0x00000000   Number         0  llsdiv.o ABSOLUTE
    ../clib/memcpset.s                       0x00000000   Number         0  rt_memcpy_v6.o ABSOLUTE
    ../clib/memcpset.s                       0x00000000   Number         0  strcmpv7m.o ABSOLUTE
    ../clib/memcpset.s                       0x00000000   Number         0  rt_memcpy_w.o ABSOLUTE
    ../clib/misc.s                           0x00000000   Number         0  printf_stubs.o ABSOLUTE
    ../clib/printf.c                         0x00000000   Number         0  _printf_hex_ll.o ABSOLUTE
    ../clib/printf.c                         0x00000000   Number         0  _printf_dec.o ABSOLUTE
    ../clib/printf.c                         0x00000000   Number         0  _printf_pad.o ABSOLUTE
    ../clib/printf.c                         0x00000000   Number         0  __printf.o ABSOLUTE
    ../clib/printf.c                         0x00000000   Number         0  noretval__2printf.o ABSOLUTE
    ../clib/printf.c                         0x00000000   Number         0  __2printf.o ABSOLUTE
    ../clib/printf.c                         0x00000000   Number         0  __printf_nopercent.o ABSOLUTE
    ../clib/printf.c                         0x00000000   Number         0  _printf_char_common.o ABSOLUTE
    ../clib/printf.c                         0x00000000   Number         0  _printf_char_file.o ABSOLUTE
    ../clib/printf.c                         0x00000000   Number         0  _printf_char.o ABSOLUTE
    ../clib/printf.c                         0x00000000   Number         0  _printf_intcommon.o ABSOLUTE
    ../clib/printf.c                         0x00000000   Number         0  _printf_str.o ABSOLUTE
    ../clib/printf.c                         0x00000000   Number         0  __printf_flags_ss_wp.o ABSOLUTE
    ../clib/printf.c                         0x00000000   Number         0  __printf_ss_wp.o ABSOLUTE
    ../clib/printf.c                         0x00000000   Number         0  __printf_flags_wp.o ABSOLUTE
    ../clib/printf.c                         0x00000000   Number         0  __printf_wp.o ABSOLUTE
    ../clib/printf.c                         0x00000000   Number         0  __printf_flags_ss.o ABSOLUTE
    ../clib/printf.c                         0x00000000   Number         0  __printf_ss.o ABSOLUTE
    ../clib/printf.c                         0x00000000   Number         0  __printf_flags.o ABSOLUTE
    ../clib/printf.c                         0x00000000   Number         0  _printf_hex_int_ll_ptr.o ABSOLUTE
    ../clib/printf.c                         0x00000000   Number         0  _printf_hex_ll_ptr.o ABSOLUTE
    ../clib/printf.c                         0x00000000   Number         0  _printf_hex_int_ptr.o ABSOLUTE
    ../clib/printf.c                         0x00000000   Number         0  _printf_hex_ptr.o ABSOLUTE
    ../clib/printf.c                         0x00000000   Number         0  _printf_hex_int_ll.o ABSOLUTE
    ../clib/printf.c                         0x00000000   Number         0  _printf_hex_int.o ABSOLUTE
    ../clib/printf_percent.s                 0x00000000   Number         0  _printf_u.o ABSOLUTE
    ../clib/printf_percent.s                 0x00000000   Number         0  _printf_percent.o ABSOLUTE
    ../clib/printf_percent.s                 0x00000000   Number         0  _printf_c.o ABSOLUTE
    ../clib/printf_percent.s                 0x00000000   Number         0  _printf_s.o ABSOLUTE
    ../clib/printf_percent.s                 0x00000000   Number         0  _printf_x.o ABSOLUTE
    ../clib/printf_percent.s                 0x00000000   Number         0  _printf_percent_end.o ABSOLUTE
    ../clib/printf_percent.s                 0x00000000   Number         0  _printf_d.o ABSOLUTE
    ../clib/signal.c                         0x00000000   Number         0  defsig_other.o ABSOLUTE
    ../clib/signal.c                         0x00000000   Number         0  defsig_segv_inner.o ABSOLUTE
    ../clib/signal.c                         0x00000000   Number         0  defsig_cppl_inner.o ABSOLUTE
    ../clib/signal.c                         0x00000000   Number         0  defsig_pvfn_inner.o ABSOLUTE
    ../clib/signal.c                         0x00000000   Number         0  defsig_stak_inner.o ABSOLUTE
    ../clib/signal.c                         0x00000000   Number         0  defsig_rtmem_inner.o ABSOLUTE
    ../clib/signal.c                         0x00000000   Number         0  defsig_rtred_inner.o ABSOLUTE
    ../clib/signal.c                         0x00000000   Number         0  defsig_abrt_inner.o ABSOLUTE
    ../clib/signal.c                         0x00000000   Number         0  defsig_rtmem_formal.o ABSOLUTE
    ../clib/signal.c                         0x00000000   Number         0  defsig_rtmem_outer.o ABSOLUTE
    ../clib/signal.c                         0x00000000   Number         0  defsig_fpe_outer.o ABSOLUTE
    ../clib/signal.c                         0x00000000   Number         0  defsig_general.o ABSOLUTE
    ../clib/signal.c                         0x00000000   Number         0  __raise.o ABSOLUTE
    ../clib/signal.c                         0x00000000   Number         0  defsig_fpe_inner.o ABSOLUTE
    ../clib/signal.c                         0x00000000   Number         0  defsig_exit.o ABSOLUTE
    ../clib/signal.c                         0x00000000   Number         0  defsig_fpe_formal.o ABSOLUTE
    ../clib/signal.s                         0x00000000   Number         0  defsig.o ABSOLUTE
    ../clib/stdio.c                          0x00000000   Number         0  ferror_locked.o ABSOLUTE
    ../clib/stdio.c                          0x00000000   Number         0  ferror.o ABSOLUTE
    ../clib/stdlib.c                         0x00000000   Number         0  exit.o ABSOLUTE
    ../clib/string.c                         0x00000000   Number         0  strlen.o ABSOLUTE
    ../clib/string.c                         0x00000000   Number         0  strcpy.o ABSOLUTE
    ../clib/string.c                         0x00000000   Number         0  strcat.o ABSOLUTE
    ../fplib/dfixu.s                         0x00000000   Number         0  dfixu.o ABSOLUTE
    ../fplib/dflt.s                          0x00000000   Number         0  dflt_clz.o ABSOLUTE
    ../fplib/dmul.s                          0x00000000   Number         0  dmul.o ABSOLUTE
    ../fplib/dnaninf.s                       0x00000000   Number         0  dnaninf.o ABSOLUTE
    ../fplib/dretinf.s                       0x00000000   Number         0  dretinf.o ABSOLUTE
    ../fplib/fpinit.s                        0x00000000   Number         0  fpinit.o ABSOLUTE
    ../fplib/usenofp.s                       0x00000000   Number         0  usenofp.o ABSOLUTE
    ..\APP\audioplay.c                       0x00000000   Number         0  audioplay.o ABSOLUTE
    ..\AUDIOCODEC\wav\wavplay.c              0x00000000   Number         0  wavplay.o ABSOLUTE
    ..\FATFS\exfuns\exfuns.c                 0x00000000   Number         0  exfuns.o ABSOLUTE
    ..\FATFS\exfuns\fattester.c              0x00000000   Number         0  fattester.o ABSOLUTE
    ..\FATFS\exfuns\mycc936.c                0x00000000   Number         0  mycc936.o ABSOLUTE
    ..\FATFS\src\diskio.c                    0x00000000   Number         0  diskio.o ABSOLUTE
    ..\FATFS\src\ff.c                        0x00000000   Number         0  ff.o ABSOLUTE
    ..\HARDWARE\24CXX\myiic.c                0x00000000   Number         0  myiic.o ABSOLUTE
    ..\HARDWARE\I2S\i2s.c                    0x00000000   Number         0  i2s.o ABSOLUTE
    ..\HARDWARE\KEY\key.c                    0x00000000   Number         0  key.o ABSOLUTE
    ..\HARDWARE\LCD\ILI93xx.c                0x00000000   Number         0  ili93xx.o ABSOLUTE
    ..\HARDWARE\LED\led.c                    0x00000000   Number         0  led.o ABSOLUTE
    ..\HARDWARE\SDIO\sdio_sdcard.c           0x00000000   Number         0  sdio_sdcard.o ABSOLUTE
    ..\HARDWARE\SPI\spi.c                    0x00000000   Number         0  spi.o ABSOLUTE
    ..\HARDWARE\W25QXX\w25qxx.c              0x00000000   Number         0  w25qxx.o ABSOLUTE
    ..\HARDWARE\WM8978\wm8978.c              0x00000000   Number         0  wm8978.o ABSOLUTE
    ..\MALLOC\malloc.c                       0x00000000   Number         0  malloc.o ABSOLUTE
    ..\SYSTEM\delay\delay.c                  0x00000000   Number         0  delay.o ABSOLUTE
    ..\SYSTEM\sys\sys.c                      0x00000000   Number         0  sys.o ABSOLUTE
    ..\SYSTEM\usart\usart.c                  0x00000000   Number         0  usart.o ABSOLUTE
    ..\TEXT\fontupd.c                        0x00000000   Number         0  fontupd.o ABSOLUTE
    ..\TEXT\text.c                           0x00000000   Number         0  text.o ABSOLUTE
    ..\USMART\usmart.c                       0x00000000   Number         0  usmart.o ABSOLUTE
    ..\USMART\usmart_config.c                0x00000000   Number         0  usmart_config.o ABSOLUTE
    ..\USMART\usmart_str.c                   0x00000000   Number         0  usmart_str.o ABSOLUTE
    ..\\APP\\audioplay.c                     0x00000000   Number         0  audioplay.o ABSOLUTE
    ..\\AUDIOCODEC\\wav\\wavplay.c           0x00000000   Number         0  wavplay.o ABSOLUTE
    ..\\FATFS\\exfuns\\exfuns.c              0x00000000   Number         0  exfuns.o ABSOLUTE
    ..\\FATFS\\exfuns\\fattester.c           0x00000000   Number         0  fattester.o ABSOLUTE
    ..\\FATFS\\exfuns\\mycc936.c             0x00000000   Number         0  mycc936.o ABSOLUTE
    ..\\FATFS\\src\\diskio.c                 0x00000000   Number         0  diskio.o ABSOLUTE
    ..\\HARDWARE\\24CXX\\myiic.c             0x00000000   Number         0  myiic.o ABSOLUTE
    ..\\HARDWARE\\I2S\\i2s.c                 0x00000000   Number         0  i2s.o ABSOLUTE
    ..\\HARDWARE\\KEY\\key.c                 0x00000000   Number         0  key.o ABSOLUTE
    ..\\HARDWARE\\LCD\\ILI93xx.c             0x00000000   Number         0  ili93xx.o ABSOLUTE
    ..\\HARDWARE\\LED\\led.c                 0x00000000   Number         0  led.o ABSOLUTE
    ..\\HARDWARE\\SDIO\\sdio_sdcard.c        0x00000000   Number         0  sdio_sdcard.o ABSOLUTE
    ..\\HARDWARE\\SPI\\spi.c                 0x00000000   Number         0  spi.o ABSOLUTE
    ..\\HARDWARE\\W25QXX\\w25qxx.c           0x00000000   Number         0  w25qxx.o ABSOLUTE
    ..\\HARDWARE\\WM8978\\wm8978.c           0x00000000   Number         0  wm8978.o ABSOLUTE
    ..\\MALLOC\\malloc.c                     0x00000000   Number         0  malloc.o ABSOLUTE
    ..\\SYSTEM\\delay\\delay.c               0x00000000   Number         0  delay.o ABSOLUTE
    ..\\SYSTEM\\sys\\sys.c                   0x00000000   Number         0  sys.o ABSOLUTE
    ..\\SYSTEM\\usart\\usart.c               0x00000000   Number         0  usart.o ABSOLUTE
    ..\\TEXT\\fontupd.c                      0x00000000   Number         0  fontupd.o ABSOLUTE
    ..\\TEXT\\text.c                         0x00000000   Number         0  text.o ABSOLUTE
    ..\\USMART\\usmart.c                     0x00000000   Number         0  usmart.o ABSOLUTE
    ..\\USMART\\usmart_config.c              0x00000000   Number         0  usmart_config.o ABSOLUTE
    ..\\USMART\\usmart_str.c                 0x00000000   Number         0  usmart_str.o ABSOLUTE
    dc.s                                     0x00000000   Number         0  dc.o ABSOLUTE
    startup_stm32f40_41xxx.s                 0x00000000   Number         0  startup_stm32f40_41xxx.o ABSOLUTE
    test.c                                   0x00000000   Number         0  test.o ABSOLUTE
    test.c                                   0x00000000   Number         0  test.o ABSOLUTE
    RESET                                    0x08000000   Section      392  startup_stm32f40_41xxx.o(RESET)
    !!!main                                  0x08000188   Section        8  __main.o(!!!main)
    !!!scatter                               0x08000190   Section       52  __scatter.o(!!!scatter)
    !!dczerorl2                              0x080001c4   Section       90  __dczerorl2.o(!!dczerorl2)
    !!handler_zi                             0x08000220   Section       28  __scatter_zi.o(!!handler_zi)
    .ARM.Collect$$_printf_percent$$00000000  0x0800023c   Section        0  _printf_percent.o(.ARM.Collect$$_printf_percent$$00000000)
    .ARM.Collect$$_printf_percent$$00000009  0x0800023c   Section        6  _printf_d.o(.ARM.Collect$$_printf_percent$$00000009)
    .ARM.Collect$$_printf_percent$$0000000A  0x08000242   Section        6  _printf_u.o(.ARM.Collect$$_printf_percent$$0000000A)
    .ARM.Collect$$_printf_percent$$0000000C  0x08000248   Section        6  _printf_x.o(.ARM.Collect$$_printf_percent$$0000000C)
    .ARM.Collect$$_printf_percent$$00000013  0x0800024e   Section        6  _printf_c.o(.ARM.Collect$$_printf_percent$$00000013)
    .ARM.Collect$$_printf_percent$$00000014  0x08000254   Section        6  _printf_s.o(.ARM.Collect$$_printf_percent$$00000014)
    .ARM.Collect$$_printf_percent$$00000017  0x0800025a   Section        4  _printf_percent_end.o(.ARM.Collect$$_printf_percent$$00000017)
    .ARM.Collect$$libinit$$00000000          0x0800025e   Section        2  libinit.o(.ARM.Collect$$libinit$$00000000)
    .ARM.Collect$$libinit$$00000001          0x08000260   Section        4  libinit2.o(.ARM.Collect$$libinit$$00000001)
    .ARM.Collect$$libinit$$00000004          0x08000264   Section        0  libinit2.o(.ARM.Collect$$libinit$$00000004)
    .ARM.Collect$$libinit$$0000000A          0x08000264   Section        0  libinit2.o(.ARM.Collect$$libinit$$0000000A)
    .ARM.Collect$$libinit$$0000000C          0x08000264   Section        0  libinit2.o(.ARM.Collect$$libinit$$0000000C)
    .ARM.Collect$$libinit$$0000000E          0x08000264   Section        0  libinit2.o(.ARM.Collect$$libinit$$0000000E)
    .ARM.Collect$$libinit$$00000011          0x08000264   Section        0  libinit2.o(.ARM.Collect$$libinit$$00000011)
    .ARM.Collect$$libinit$$00000013          0x08000264   Section        0  libinit2.o(.ARM.Collect$$libinit$$00000013)
    .ARM.Collect$$libinit$$00000015          0x08000264   Section        0  libinit2.o(.ARM.Collect$$libinit$$00000015)
    .ARM.Collect$$libinit$$00000017          0x08000264   Section        0  libinit2.o(.ARM.Collect$$libinit$$00000017)
    .ARM.Collect$$libinit$$00000019          0x08000264   Section        0  libinit2.o(.ARM.Collect$$libinit$$00000019)
    .ARM.Collect$$libinit$$0000001B          0x08000264   Section        0  libinit2.o(.ARM.Collect$$libinit$$0000001B)
    .ARM.Collect$$libinit$$0000001D          0x08000264   Section        0  libinit2.o(.ARM.Collect$$libinit$$0000001D)
    .ARM.Collect$$libinit$$0000001F          0x08000264   Section        0  libinit2.o(.ARM.Collect$$libinit$$0000001F)
    .ARM.Collect$$libinit$$00000021          0x08000264   Section        0  libinit2.o(.ARM.Collect$$libinit$$00000021)
    .ARM.Collect$$libinit$$00000023          0x08000264   Section        0  libinit2.o(.ARM.Collect$$libinit$$00000023)
    .ARM.Collect$$libinit$$00000025          0x08000264   Section        0  libinit2.o(.ARM.Collect$$libinit$$00000025)
    .ARM.Collect$$libinit$$0000002C          0x08000264   Section        0  libinit2.o(.ARM.Collect$$libinit$$0000002C)
    .ARM.Collect$$libinit$$0000002E          0x08000264   Section        0  libinit2.o(.ARM.Collect$$libinit$$0000002E)
    .ARM.Collect$$libinit$$00000030          0x08000264   Section        0  libinit2.o(.ARM.Collect$$libinit$$00000030)
    .ARM.Collect$$libinit$$00000032          0x08000264   Section        0  libinit2.o(.ARM.Collect$$libinit$$00000032)
    .ARM.Collect$$libinit$$00000033          0x08000264   Section        2  libinit2.o(.ARM.Collect$$libinit$$00000033)
    .ARM.Collect$$libshutdown$$00000000      0x08000266   Section        2  libshutdown.o(.ARM.Collect$$libshutdown$$00000000)
    .ARM.Collect$$libshutdown$$00000003      0x08000268   Section        0  libshutdown2.o(.ARM.Collect$$libshutdown$$00000003)
    .ARM.Collect$$libshutdown$$00000006      0x08000268   Section        0  libshutdown2.o(.ARM.Collect$$libshutdown$$00000006)
    .ARM.Collect$$libshutdown$$00000009      0x08000268   Section        0  libshutdown2.o(.ARM.Collect$$libshutdown$$00000009)
    .ARM.Collect$$libshutdown$$0000000B      0x08000268   Section        0  libshutdown2.o(.ARM.Collect$$libshutdown$$0000000B)
    .ARM.Collect$$libshutdown$$0000000E      0x08000268   Section        0  libshutdown2.o(.ARM.Collect$$libshutdown$$0000000E)
    .ARM.Collect$$libshutdown$$0000000F      0x08000268   Section        2  libshutdown2.o(.ARM.Collect$$libshutdown$$0000000F)
    .ARM.Collect$$rtentry$$00000000          0x0800026a   Section        0  __rtentry.o(.ARM.Collect$$rtentry$$00000000)
    .ARM.Collect$$rtentry$$00000002          0x0800026a   Section        0  __rtentry2.o(.ARM.Collect$$rtentry$$00000002)
    .ARM.Collect$$rtentry$$00000004          0x0800026a   Section        6  __rtentry4.o(.ARM.Collect$$rtentry$$00000004)
    .ARM.Collect$$rtentry$$00000009          0x08000270   Section        0  __rtentry2.o(.ARM.Collect$$rtentry$$00000009)
    .ARM.Collect$$rtentry$$0000000A          0x08000270   Section        4  __rtentry2.o(.ARM.Collect$$rtentry$$0000000A)
    .ARM.Collect$$rtentry$$0000000C          0x08000274   Section        0  __rtentry2.o(.ARM.Collect$$rtentry$$0000000C)
    .ARM.Collect$$rtentry$$0000000D          0x08000274   Section        8  __rtentry2.o(.ARM.Collect$$rtentry$$0000000D)
    .ARM.Collect$$rtexit$$00000000           0x0800027c   Section        2  rtexit.o(.ARM.Collect$$rtexit$$00000000)
    .ARM.Collect$$rtexit$$00000002           0x0800027e   Section        0  rtexit2.o(.ARM.Collect$$rtexit$$00000002)
    .ARM.Collect$$rtexit$$00000003           0x0800027e   Section        4  rtexit2.o(.ARM.Collect$$rtexit$$00000003)
    .ARM.Collect$$rtexit$$00000004           0x08000282   Section        6  rtexit2.o(.ARM.Collect$$rtexit$$00000004)
    .text                                    0x08000288   Section       68  startup_stm32f40_41xxx.o(.text)
    $v0                                      0x08000288   Number         0  startup_stm32f40_41xxx.o(.text)
    .text                                    0x080002cc   Section        2  use_no_semi_2.o(.text)
    .text                                    0x080002ce   Section       72  llsdiv.o(.text)
    .text                                    0x08000318   Section        0  noretval__2printf.o(.text)
    .text                                    0x08000330   Section        0  _printf_pad.o(.text)
    .text                                    0x0800037e   Section        0  _printf_str.o(.text)
    .text                                    0x080003d0   Section        0  _printf_dec.o(.text)
    .text                                    0x08000448   Section        0  _printf_hex_int.o(.text)
    .text                                    0x080004a0   Section        0  __printf_flags_ss_wp.o(.text)
    .text                                    0x08000628   Section        0  strcpy.o(.text)
    .text                                    0x08000670   Section        0  strcat.o(.text)
    .text                                    0x08000688   Section      138  rt_memcpy_v6.o(.text)
    .text                                    0x08000714   Section      128  strcmpv7m.o(.text)
    .text                                    0x08000794   Section        0  heapauxi.o(.text)
    .text                                    0x0800079a   Section        2  use_no_semi.o(.text)
    .text                                    0x0800079c   Section      238  lludivv7m.o(.text)
    .text                                    0x0800088a   Section        0  _printf_intcommon.o(.text)
    .text                                    0x0800093c   Section        0  _printf_char.o(.text)
    .text                                    0x08000968   Section        0  _printf_char_file.o(.text)
    .text                                    0x0800098c   Section      100  rt_memcpy_w.o(.text)
    .text                                    0x080009f0   Section        0  _printf_char_common.o(.text)
    _printf_input_char                       0x080009f1   Thumb Code    10  _printf_char_common.o(.text)
    .text                                    0x08000a20   Section        0  ferror.o(.text)
    .text                                    0x08000a28   Section       74  sys_stackheap_outer.o(.text)
    .text                                    0x08000a72   Section        0  exit.o(.text)
    .text                                    0x08000a80   Section        8  libspace.o(.text)
    i.CmdError                               0x08000a88   Section        0  sdio_sdcard.o(i.CmdError)
    i.CmdResp1Error                          0x08000ac0   Section        0  sdio_sdcard.o(i.CmdResp1Error)
    i.CmdResp2Error                          0x08000b20   Section        0  sdio_sdcard.o(i.CmdResp2Error)
    i.CmdResp3Error                          0x08000b88   Section        0  sdio_sdcard.o(i.CmdResp3Error)
    i.CmdResp6Error                          0x08000bc8   Section        0  sdio_sdcard.o(i.CmdResp6Error)
    i.CmdResp7Error                          0x08000c68   Section        0  sdio_sdcard.o(i.CmdResp7Error)
    i.DMA1_Stream4_IRQHandler                0x08000cc4   Section        0  i2s.o(i.DMA1_Stream4_IRQHandler)
    i.FindSCR                                0x08000cec   Section        0  sdio_sdcard.o(i.FindSCR)
    i.GPIO_AF_Set                            0x08000e48   Section        0  sys.o(i.GPIO_AF_Set)
    i.GPIO_Set                               0x08000e88   Section        0  sys.o(i.GPIO_Set)
    i.Get_HzMat                              0x08000f68   Section        0  text.o(i.Get_HzMat)
    i.I2S2_Init                              0x08001048   Section        0  i2s.o(i.I2S2_Init)
    i.I2S2_SampleRate_Set                    0x080010f4   Section        0  i2s.o(i.I2S2_SampleRate_Set)
    i.I2S2_TX_DMA_Init                       0x080011a4   Section        0  i2s.o(i.I2S2_TX_DMA_Init)
    i.I2S_Play_Start                         0x0800128c   Section        0  i2s.o(i.I2S_Play_Start)
    i.I2S_Play_Stop                          0x080012a0   Section        0  i2s.o(i.I2S_Play_Stop)
    i.IIC_Init                               0x080012b4   Section        0  myiic.o(i.IIC_Init)
    i.IIC_Send_Byte                          0x080012f8   Section        0  myiic.o(i.IIC_Send_Byte)
    i.IIC_Start                              0x08001360   Section        0  myiic.o(i.IIC_Start)
    i.IIC_Stop                               0x080013ac   Section        0  myiic.o(i.IIC_Stop)
    i.IIC_Wait_Ack                           0x080013f8   Section        0  myiic.o(i.IIC_Wait_Ack)
    i.INTX_DISABLE                           0x08001458   Section        0  sys.o(i.INTX_DISABLE)
    i.INTX_ENABLE                            0x0800145c   Section        0  sys.o(i.INTX_ENABLE)
    i.IsCardProgramming                      0x08001460   Section        0  sdio_sdcard.o(i.IsCardProgramming)
    i.KEY_Init                               0x080014fc   Section        0  key.o(i.KEY_Init)
    i.KEY_Scan                               0x0800154c   Section        0  key.o(i.KEY_Scan)
    i.LCD_Clear                              0x080015f0   Section        0  ili93xx.o(i.LCD_Clear)
    i.LCD_Display_Dir                        0x0800165c   Section        0  ili93xx.o(i.LCD_Display_Dir)
    i.LCD_Fast_DrawPoint                     0x0800181c   Section        0  ili93xx.o(i.LCD_Fast_DrawPoint)
    i.LCD_Fill                               0x0800199c   Section        0  ili93xx.o(i.LCD_Fill)
    i.LCD_Init                               0x08001a54   Section        0  ili93xx.o(i.LCD_Init)
    i.LCD_Pow                                0x08005388   Section        0  ili93xx.o(i.LCD_Pow)
    i.LCD_RD_DATA                            0x080053a0   Section        0  ili93xx.o(i.LCD_RD_DATA)
    i.LCD_ReadReg                            0x080053b4   Section        0  ili93xx.o(i.LCD_ReadReg)
    i.LCD_SSD_BackLightSet                   0x080053cc   Section        0  ili93xx.o(i.LCD_SSD_BackLightSet)
    i.LCD_Scan_Dir                           0x0800542c   Section        0  ili93xx.o(i.LCD_Scan_Dir)
    i.LCD_SetCursor                          0x08005718   Section        0  ili93xx.o(i.LCD_SetCursor)
    i.LCD_ShowChar                           0x080058c0   Section        0  ili93xx.o(i.LCD_ShowChar)
    i.LCD_ShowString                         0x080059e8   Section        0  ili93xx.o(i.LCD_ShowString)
    i.LCD_ShowxNum                           0x08005a4e   Section        0  ili93xx.o(i.LCD_ShowxNum)
    i.LCD_WR_DATA                            0x08005b0c   Section        0  ili93xx.o(i.LCD_WR_DATA)
    i.LCD_WR_REG                             0x08005b24   Section        0  ili93xx.o(i.LCD_WR_REG)
    i.LCD_WriteRAM_Prepare                   0x08005b3c   Section        0  ili93xx.o(i.LCD_WriteRAM_Prepare)
    i.LCD_WriteReg                           0x08005b50   Section        0  ili93xx.o(i.LCD_WriteReg)
    i.LED_Init                               0x08005b64   Section        0  led.o(i.LED_Init)
    i.MY_NVIC_Init                           0x08005ba4   Section        0  sys.o(i.MY_NVIC_Init)
    i.MY_NVIC_PriorityGroupConfig            0x08005c1c   Section        0  sys.o(i.MY_NVIC_PriorityGroupConfig)
    i.MY_NVIC_SetVectorTable                 0x08005c44   Section        0  sys.o(i.MY_NVIC_SetVectorTable)
    i.SDEnWideBus                            0x08005c54   Section        0  sdio_sdcard.o(i.SDEnWideBus)
    i.SDIO_Clock_Set                         0x08005cd4   Section        0  sdio_sdcard.o(i.SDIO_Clock_Set)
    i.SDIO_IRQHandler                        0x08005ce8   Section        0  sdio_sdcard.o(i.SDIO_IRQHandler)
    i.SDIO_Send_Cmd                          0x08005cf0   Section        0  sdio_sdcard.o(i.SDIO_Send_Cmd)
    i.SDIO_Send_Data_Cfg                     0x08005d1c   Section        0  sdio_sdcard.o(i.SDIO_Send_Data_Cfg)
    i.SD_DMA_Config                          0x08005d54   Section        0  sdio_sdcard.o(i.SD_DMA_Config)
    i.SD_EnableWideBusOperation              0x08005de8   Section        0  sdio_sdcard.o(i.SD_EnableWideBusOperation)
    i.SD_GetCardInfo                         0x08005e50   Section        0  sdio_sdcard.o(i.SD_GetCardInfo)
    i.SD_Init                                0x08006164   Section        0  sdio_sdcard.o(i.SD_Init)
    i.SD_InitializeCards                     0x080062dc   Section        0  sdio_sdcard.o(i.SD_InitializeCards)
    i.SD_PowerON                             0x080063f0   Section        0  sdio_sdcard.o(i.SD_PowerON)
    i.SD_ProcessIRQSrc                       0x08006570   Section        0  sdio_sdcard.o(i.SD_ProcessIRQSrc)
    i.SD_ReadBlock                           0x080066dc   Section        0  sdio_sdcard.o(i.SD_ReadBlock)
    i.SD_ReadDisk                            0x08006928   Section        0  sdio_sdcard.o(i.SD_ReadDisk)
    i.SD_ReadMultiBlocks                     0x080069c8   Section        0  sdio_sdcard.o(i.SD_ReadMultiBlocks)
    i.SD_SelectDeselect                      0x08006c8c   Section        0  sdio_sdcard.o(i.SD_SelectDeselect)
    i.SD_SetDeviceMode                       0x08006ca4   Section        0  sdio_sdcard.o(i.SD_SetDeviceMode)
    i.SD_WriteBlock                          0x08006cbc   Section        0  sdio_sdcard.o(i.SD_WriteBlock)
    i.SD_WriteDisk                           0x08007000   Section        0  sdio_sdcard.o(i.SD_WriteDisk)
    i.SD_WriteMultiBlocks                    0x080070a0   Section        0  sdio_sdcard.o(i.SD_WriteMultiBlocks)
    i.SPI1_Init                              0x0800741c   Section        0  spi.o(i.SPI1_Init)
    i.SPI1_ReadWriteByte                     0x080074cc   Section        0  spi.o(i.SPI1_ReadWriteByte)
    i.SPI1_SetSpeed                          0x080074fc   Section        0  spi.o(i.SPI1_SetSpeed)
    i.Show_Font                              0x08007528   Section        0  text.o(i.Show_Font)
    i.Show_Str                               0x080075f0   Section        0  text.o(i.Show_Str)
    i.Stm32_Clock_Init                       0x080076b4   Section        0  sys.o(i.Stm32_Clock_Init)
    i.Sys_Clock_Set                          0x0800771c   Section        0  sys.o(i.Sys_Clock_Set)
    i.TIM4_IRQHandler                        0x08007828   Section        0  usmart.o(i.TIM4_IRQHandler)
    i.Timer4_Init                            0x08007864   Section        0  usmart.o(i.Timer4_Init)
    i.USART1_IRQHandler                      0x080078b4   Section        0  usart.o(i.USART1_IRQHandler)
    i.W25QXX_Erase_Sector                    0x08007934   Section        0  w25qxx.o(i.W25QXX_Erase_Sector)
    i.W25QXX_Init                            0x0800798c   Section        0  w25qxx.o(i.W25QXX_Init)
    i.W25QXX_Read                            0x08007a0c   Section        0  w25qxx.o(i.W25QXX_Read)
    i.W25QXX_ReadID                          0x08007a5c   Section        0  w25qxx.o(i.W25QXX_ReadID)
    i.W25QXX_ReadSR                          0x08007aa4   Section        0  w25qxx.o(i.W25QXX_ReadSR)
    i.W25QXX_Wait_Busy                       0x08007ad0   Section        0  w25qxx.o(i.W25QXX_Wait_Busy)
    i.W25QXX_Write                           0x08007ae4   Section        0  w25qxx.o(i.W25QXX_Write)
    i.W25QXX_Write_Enable                    0x08007b9c   Section        0  w25qxx.o(i.W25QXX_Write_Enable)
    i.W25QXX_Write_NoCheck                   0x08007bbc   Section        0  w25qxx.o(i.W25QXX_Write_NoCheck)
    i.W25QXX_Write_Page                      0x08007c04   Section        0  w25qxx.o(i.W25QXX_Write_Page)
    i.WM8978_3D_Set                          0x08007c58   Section        0  wm8978.o(i.WM8978_3D_Set)
    i.WM8978_ADDA_Cfg                        0x08007c6a   Section        0  wm8978.o(i.WM8978_ADDA_Cfg)
    i.WM8978_AUX_Gain                        0x08007caa   Section        0  wm8978.o(i.WM8978_AUX_Gain)
    i.WM8978_EQ1_Set                         0x08007ce0   Section        0  wm8978.o(i.WM8978_EQ1_Set)
    i.WM8978_EQ2_Set                         0x08007d12   Section        0  wm8978.o(i.WM8978_EQ2_Set)
    i.WM8978_EQ3_Set                         0x08007d3a   Section        0  wm8978.o(i.WM8978_EQ3_Set)
    i.WM8978_EQ4_Set                         0x08007d62   Section        0  wm8978.o(i.WM8978_EQ4_Set)
    i.WM8978_EQ5_Set                         0x08007d8a   Section        0  wm8978.o(i.WM8978_EQ5_Set)
    i.WM8978_EQ_3D_Dir                       0x08007db2   Section        0  wm8978.o(i.WM8978_EQ_3D_Dir)
    i.WM8978_HPvol_Set                       0x08007dd4   Section        0  wm8978.o(i.WM8978_HPvol_Set)
    i.WM8978_I2S_Cfg                         0x08007e02   Section        0  wm8978.o(i.WM8978_I2S_Cfg)
    i.WM8978_Init                            0x08007e20   Section        0  wm8978.o(i.WM8978_Init)
    i.WM8978_Input_Cfg                       0x08007f0c   Section        0  wm8978.o(i.WM8978_Input_Cfg)
    i.WM8978_LINEIN_Gain                     0x08007f72   Section        0  wm8978.o(i.WM8978_LINEIN_Gain)
    i.WM8978_Output_Cfg                      0x08007fa8   Section        0  wm8978.o(i.WM8978_Output_Cfg)
    i.WM8978_Read_Reg                        0x08007fd4   Section        0  wm8978.o(i.WM8978_Read_Reg)
    i.WM8978_SPKvol_Set                      0x08007fe4   Section        0  wm8978.o(i.WM8978_SPKvol_Set)
    i.WM8978_Write_Reg                       0x08008008   Section        0  wm8978.o(i.WM8978_Write_Reg)
    i._is_digit                              0x0800805c   Section        0  __printf_wp.o(i._is_digit)
    i._sys_exit                              0x0800806a   Section        0  usart.o(i._sys_exit)
    i.audio_get_tnum                         0x08008070   Section        0  audioplay.o(i.audio_get_tnum)
    i.audio_index_show                       0x080080e4   Section        0  audioplay.o(i.audio_index_show)
    i.audio_msg_show                         0x08008124   Section        0  audioplay.o(i.audio_msg_show)
    i.audio_play                             0x08008224   Section        0  audioplay.o(i.audio_play)
    i.audio_play_song                        0x080084b8   Section        0  audioplay.o(i.audio_play_song)
    i.audio_start                            0x080084f4   Section        0  audioplay.o(i.audio_start)
    i.audio_stop                             0x08008508   Section        0  audioplay.o(i.audio_stop)
    i.char_upper                             0x0800851c   Section        0  exfuns.o(i.char_upper)
    i.check_fs                               0x08008538   Section        0  ff.o(i.check_fs)
    check_fs                                 0x08008539   Thumb Code   140  ff.o(i.check_fs)
    i.chk_chr                                0x080085c8   Section        0  ff.o(i.chk_chr)
    chk_chr                                  0x080085c9   Thumb Code    20  ff.o(i.chk_chr)
    i.clmt_clust                             0x080085dc   Section        0  ff.o(i.clmt_clust)
    clmt_clust                               0x080085dd   Thumb Code    50  ff.o(i.clmt_clust)
    i.clust2sect                             0x0800860e   Section        0  ff.o(i.clust2sect)
    i.cmp_lfn                                0x08008628   Section        0  ff.o(i.cmp_lfn)
    cmp_lfn                                  0x08008629   Thumb Code   138  ff.o(i.cmp_lfn)
    i.convert_from_bytes_to_power_of_two     0x080086b8   Section        0  sdio_sdcard.o(i.convert_from_bytes_to_power_of_two)
    i.create_chain                           0x080086ca   Section        0  ff.o(i.create_chain)
    create_chain                             0x080086cb   Thumb Code   214  ff.o(i.create_chain)
    i.create_name                            0x080087a0   Section        0  ff.o(i.create_name)
    create_name                              0x080087a1   Thumb Code   604  ff.o(i.create_name)
    i.delay_init                             0x08008a10   Section        0  delay.o(i.delay_init)
    i.delay_ms                               0x08008a50   Section        0  delay.o(i.delay_ms)
    i.delay_us                               0x08008a88   Section        0  delay.o(i.delay_us)
    i.delay_xms                              0x08008ac4   Section        0  delay.o(i.delay_xms)
    i.dir_alloc                              0x08008b00   Section        0  ff.o(i.dir_alloc)
    dir_alloc                                0x08008b01   Thumb Code    92  ff.o(i.dir_alloc)
    i.dir_find                               0x08008b5c   Section        0  ff.o(i.dir_find)
    dir_find                                 0x08008b5d   Thumb Code   234  ff.o(i.dir_find)
    i.dir_next                               0x08008c46   Section        0  ff.o(i.dir_next)
    dir_next                                 0x08008c47   Thumb Code   272  ff.o(i.dir_next)
    i.dir_read                               0x08008d56   Section        0  ff.o(i.dir_read)
    dir_read                                 0x08008d57   Thumb Code   196  ff.o(i.dir_read)
    i.dir_register                           0x08008e1a   Section        0  ff.o(i.dir_register)
    dir_register                             0x08008e1b   Thumb Code   298  ff.o(i.dir_register)
    i.dir_sdi                                0x08008f44   Section        0  ff.o(i.dir_sdi)
    i.disk_initialize                        0x08008fe4   Section        0  diskio.o(i.disk_initialize)
    i.disk_ioctl                             0x0800901c   Section        0  diskio.o(i.disk_ioctl)
    i.disk_read                              0x080090d0   Section        0  diskio.o(i.disk_read)
    i.disk_status                            0x0800914a   Section        0  diskio.o(i.disk_status)
    i.disk_write                             0x08009150   Section        0  diskio.o(i.disk_write)
    i.exfuns_init                            0x080091cc   Section        0  exfuns.o(i.exfuns_init)
    i.f_close                                0x08009250   Section        0  ff.o(i.f_close)
    i.f_lseek                                0x08009274   Section        0  ff.o(i.f_lseek)
    i.f_mount                                0x08009504   Section        0  ff.o(i.f_mount)
    i.f_open                                 0x08009560   Section        0  ff.o(i.f_open)
    i.f_opendir                              0x080096e0   Section        0  ff.o(i.f_opendir)
    i.f_read                                 0x08009768   Section        0  ff.o(i.f_read)
    i.f_readdir                              0x08009918   Section        0  ff.o(i.f_readdir)
    i.f_sync                                 0x0800998a   Section        0  ff.o(i.f_sync)
    i.f_typetell                             0x08009a3c   Section        0  exfuns.o(i.f_typetell)
    i.ff_convert                             0x08009aec   Section        0  mycc936.o(i.ff_convert)
    i.ff_memalloc                            0x08009b84   Section        0  diskio.o(i.ff_memalloc)
    i.ff_memfree                             0x08009b92   Section        0  diskio.o(i.ff_memfree)
    i.ff_wtoupper                            0x08009ba0   Section        0  mycc936.o(i.ff_wtoupper)
    i.find_volume                            0x08009bd8   Section        0  ff.o(i.find_volume)
    find_volume                              0x08009bd9   Thumb Code   886  ff.o(i.find_volume)
    i.fit_lfn                                0x08009f60   Section        0  ff.o(i.fit_lfn)
    fit_lfn                                  0x08009f61   Thumb Code   122  ff.o(i.fit_lfn)
    i.follow_path                            0x08009fe0   Section        0  ff.o(i.follow_path)
    follow_path                              0x08009fe1   Thumb Code   144  ff.o(i.follow_path)
    i.font_init                              0x0800a070   Section        0  fontupd.o(i.font_init)
    i.fputc                                  0x0800a0b4   Section        0  usart.o(i.fputc)
    i.gen_numname                            0x0800a0d0   Section        0  ff.o(i.gen_numname)
    gen_numname                              0x0800a0d1   Thumb Code   194  ff.o(i.gen_numname)
    i.get_fat                                0x0800a198   Section        0  ff.o(i.get_fat)
    i.get_fattime                            0x0800a280   Section        0  diskio.o(i.get_fattime)
    i.get_fileinfo                           0x0800a284   Section        0  ff.o(i.get_fileinfo)
    get_fileinfo                             0x0800a285   Thumb Code   268  ff.o(i.get_fileinfo)
    i.get_ldnumber                           0x0800a390   Section        0  ff.o(i.get_ldnumber)
    get_ldnumber                             0x0800a391   Thumb Code    74  ff.o(i.get_ldnumber)
    i.ld_clust                               0x0800a3da   Section        0  ff.o(i.ld_clust)
    ld_clust                                 0x0800a3db   Thumb Code    32  ff.o(i.ld_clust)
    i.main                                   0x0800a3fc   Section        0  test.o(i.main)
    i.mem_cmp                                0x0800a5dc   Section        0  ff.o(i.mem_cmp)
    mem_cmp                                  0x0800a5dd   Thumb Code    38  ff.o(i.mem_cmp)
    i.mem_cpy                                0x0800a602   Section        0  ff.o(i.mem_cpy)
    mem_cpy                                  0x0800a603   Thumb Code    26  ff.o(i.mem_cpy)
    i.mem_set                                0x0800a61c   Section        0  ff.o(i.mem_set)
    mem_set                                  0x0800a61d   Thumb Code    20  ff.o(i.mem_set)
    i.move_window                            0x0800a630   Section        0  ff.o(i.move_window)
    move_window                              0x0800a631   Thumb Code    50  ff.o(i.move_window)
    i.my_mem_free                            0x0800a664   Section        0  malloc.o(i.my_mem_free)
    i.my_mem_init                            0x0800a6d0   Section        0  malloc.o(i.my_mem_init)
    i.my_mem_malloc                          0x0800a714   Section        0  malloc.o(i.my_mem_malloc)
    i.my_mem_perused                         0x0800a7bc   Section        0  malloc.o(i.my_mem_perused)
    i.myfree                                 0x0800a7fc   Section        0  malloc.o(i.myfree)
    i.mymalloc                               0x0800a820   Section        0  malloc.o(i.mymalloc)
    i.mymemset                               0x0800a848   Section        0  malloc.o(i.mymemset)
    i.pick_lfn                               0x0800a85c   Section        0  ff.o(i.pick_lfn)
    pick_lfn                                 0x0800a85d   Thumb Code   112  ff.o(i.pick_lfn)
    i.put_fat                                0x0800a8d0   Section        0  ff.o(i.put_fat)
    i.read_addr                              0x0800aa06   Section        0  usmart.o(i.read_addr)
    i.remove_chain                           0x0800aa0c   Section        0  ff.o(i.remove_chain)
    remove_chain                             0x0800aa0d   Thumb Code   108  ff.o(i.remove_chain)
    i.st_clust                               0x0800aa78   Section        0  ff.o(i.st_clust)
    st_clust                                 0x0800aa79   Thumb Code    16  ff.o(i.st_clust)
    i.sum_sfn                                0x0800aa88   Section        0  ff.o(i.sum_sfn)
    sum_sfn                                  0x0800aa89   Thumb Code    32  ff.o(i.sum_sfn)
    i.sync_fs                                0x0800aaa8   Section        0  ff.o(i.sync_fs)
    sync_fs                                  0x0800aaa9   Thumb Code   200  ff.o(i.sync_fs)
    i.sync_window                            0x0800ab70   Section        0  ff.o(i.sync_window)
    sync_window                              0x0800ab71   Thumb Code    76  ff.o(i.sync_window)
    i.uart_init                              0x0800abbc   Section        0  usart.o(i.uart_init)
    i.usmart_cmd_rec                         0x0800acbc   Section        0  usmart.o(i.usmart_cmd_rec)
    i.usmart_exe                             0x0800ad6c   Section        0  usmart.o(i.usmart_exe)
    i.usmart_get_aparm                       0x0800b040   Section        0  usmart_str.o(i.usmart_get_aparm)
    i.usmart_get_cmdname                     0x0800b114   Section        0  usmart_str.o(i.usmart_get_cmdname)
    i.usmart_get_fname                       0x0800b14c   Section        0  usmart_str.o(i.usmart_get_fname)
    i.usmart_get_fparam                      0x0800b30c   Section        0  usmart_str.o(i.usmart_get_fparam)
    i.usmart_get_parmpos                     0x0800b418   Section        0  usmart_str.o(i.usmart_get_parmpos)
    i.usmart_get_runtime                     0x0800b438   Section        0  usmart.o(i.usmart_get_runtime)
    i.usmart_init                            0x0800b478   Section        0  usmart.o(i.usmart_init)
    i.usmart_pow                             0x0800b4a0   Section        0  usmart_str.o(i.usmart_pow)
    i.usmart_reset_runtime                   0x0800b4b8   Section        0  usmart.o(i.usmart_reset_runtime)
    i.usmart_scan                            0x0800b4e8   Section        0  usmart.o(i.usmart_scan)
    i.usmart_search_nextc                    0x0800b5a4   Section        0  usmart_str.o(i.usmart_search_nextc)
    i.usmart_str2num                         0x0800b5ba   Section        0  usmart_str.o(i.usmart_str2num)
    i.usmart_strcmp                          0x0800b6c0   Section        0  usmart_str.o(i.usmart_strcmp)
    i.usmart_strcopy                         0x0800b6e2   Section        0  usmart_str.o(i.usmart_strcopy)
    i.usmart_strlen                          0x0800b6f8   Section        0  usmart_str.o(i.usmart_strlen)
    i.usmart_sys_cmd_exe                     0x0800b710   Section        0  usmart.o(i.usmart_sys_cmd_exe)
    i.validate                               0x0800be04   Section        0  ff.o(i.validate)
    validate                                 0x0800be05   Thumb Code    54  ff.o(i.validate)
    i.wav_buffill                            0x0800be3c   Section        0  wavplay.o(i.wav_buffill)
    i.wav_decode_init                        0x0800bedc   Section        0  wavplay.o(i.wav_decode_init)
    i.wav_get_curtime                        0x0800c0d8   Section        0  wavplay.o(i.wav_get_curtime)
    i.wav_i2s_dma_tx_callback                0x0800c124   Section        0  wavplay.o(i.wav_i2s_dma_tx_callback)
    i.wav_play_song                          0x0800c194   Section        0  wavplay.o(i.wav_play_song)
    i.write_addr                             0x0800c3e0   Section        0  usmart.o(i.write_addr)
    x$fpl$dfixu                              0x0800c3e4   Section       90  dfixu.o(x$fpl$dfixu)
    $v0                                      0x0800c3e4   Number         0  dfixu.o(x$fpl$dfixu)
    x$fpl$dfltu                              0x0800c43e   Section       38  dflt_clz.o(x$fpl$dfltu)
    $v0                                      0x0800c43e   Number         0  dflt_clz.o(x$fpl$dfltu)
    x$fpl$dmul                               0x0800c464   Section      340  dmul.o(x$fpl$dmul)
    $v0                                      0x0800c464   Number         0  dmul.o(x$fpl$dmul)
    x$fpl$dnaninf                            0x0800c5b8   Section      156  dnaninf.o(x$fpl$dnaninf)
    $v0                                      0x0800c5b8   Number         0  dnaninf.o(x$fpl$dnaninf)
    x$fpl$dretinf                            0x0800c654   Section       12  dretinf.o(x$fpl$dretinf)
    $v0                                      0x0800c654   Number         0  dretinf.o(x$fpl$dretinf)
    x$fpl$fpinit                             0x0800c660   Section       10  fpinit.o(x$fpl$fpinit)
    $v0                                      0x0800c660   Number         0  fpinit.o(x$fpl$fpinit)
    .constdata                               0x0800c66a   Section     6080  ili93xx.o(.constdata)
    x$fpl$usenofp                            0x0800c66a   Section        0  usenofp.o(x$fpl$usenofp)
    .constdata                               0x0800de2a   Section      110  i2s.o(.constdata)
    .constdata                               0x0800de98   Section       36  malloc.o(.constdata)
    .constdata                               0x0800debc   Section       58  ff.o(.constdata)
    LfnOfs                                   0x0800debc   Data          13  ff.o(.constdata)
    vst                                      0x0800deca   Data          22  ff.o(.constdata)
    cst                                      0x0800dee0   Data          22  ff.o(.constdata)
    .constdata                               0x0800def8   Section      112  exfuns.o(.constdata)
    .constdata                               0x0800df68   Section      960  mycc936.o(.constdata)
    tbl_lower                                0x0800df68   Data         480  mycc936.o(.constdata)
    tbl_upper                                0x0800e148   Data         480  mycc936.o(.constdata)
    .constdata                               0x0800e328   Section       40  _printf_hex_int.o(.constdata)
    uc_hextab                                0x0800e328   Data          20  _printf_hex_int.o(.constdata)
    lc_hextab                                0x0800e33c   Data          20  _printf_hex_int.o(.constdata)
    .constdata                               0x0800e350   Section       17  __printf_flags_ss_wp.o(.constdata)
    maptable                                 0x0800e350   Data          17  __printf_flags_ss_wp.o(.constdata)
    .conststring                             0x0800e364   Section       68  exfuns.o(.conststring)
    .conststring                             0x0800e3a8   Section       40  usmart.o(.conststring)
    .conststring                             0x0800e3d0   Section      464  usmart_config.o(.conststring)
    .ARM.__AT_0x10000000                     0x10000000   Section    61440  malloc.o(.ARM.__AT_0x10000000)
    .ARM.__AT_0x1000F000                     0x1000f000   Section     3840  malloc.o(.ARM.__AT_0x1000F000)
    .data                                    0x20000000   Section        4  delay.o(.data)
    fac_us                                   0x20000000   Data           1  delay.o(.data)
    fac_ms                                   0x20000002   Data           2  delay.o(.data)
    .data                                    0x20000004   Section        6  usart.o(.data)
    .data                                    0x2000000a   Section        4  ili93xx.o(.data)
    .data                                    0x2000000e   Section        1  key.o(.data)
    key_up                                   0x2000000e   Data           1  key.o(.data)
    .data                                    0x20000010   Section       16  sdio_sdcard.o(.data)
    CardType                                 0x20000010   Data           1  sdio_sdcard.o(.data)
    RCA                                      0x20000014   Data           4  sdio_sdcard.o(.data)
    DeviceMode                               0x20000018   Data           1  sdio_sdcard.o(.data)
    StopCondition                            0x20000019   Data           1  sdio_sdcard.o(.data)
    .data                                    0x20000020   Section        2  w25qxx.o(.data)
    .data                                    0x20000024   Section        4  i2s.o(.data)
    .data                                    0x20000028   Section      116  wm8978.o(.data)
    WM8978_REGVAL_TBL                        0x20000028   Data         116  wm8978.o(.data)
    .data                                    0x2000009c   Section       36  malloc.o(.data)
    .data                                    0x200000c0   Section        2  ff.o(.data)
    Fsid                                     0x200000c0   Data           2  ff.o(.data)
    .data                                    0x200000c2   Section        2  diskio.o(.data)
    .data                                    0x200000c4   Section       20  exfuns.o(.data)
    .data                                    0x200000d8   Section       28  usmart.o(.data)
    .data                                    0x200000f4   Section      348  usmart_config.o(.data)
    .data                                    0x20000250   Section        2  wavplay.o(.data)
    .data                                    0x20000252   Section        2  audioplay.o(.data)
    playtime                                 0x20000252   Data           2  audioplay.o(.data)
    .bss                                     0x20000254   Section      200  usart.o(.bss)
    .bss                                     0x2000031c   Section       14  ili93xx.o(.bss)
    .bss                                     0x20000330   Section      632  sdio_sdcard.o(.bss)
    CSD_Tab                                  0x20000330   Data          16  sdio_sdcard.o(.bss)
    CID_Tab                                  0x20000340   Data          16  sdio_sdcard.o(.bss)
    .bss                                     0x200005a8   Section     4096  w25qxx.o(.bss)
    .bss                                     0x200015c0   Section    119680  malloc.o(.bss)
    .bss                                     0x2001e940   Section       12  ff.o(.bss)
    FatFs                                    0x2001e940   Data          12  ff.o(.bss)
    .bss                                     0x2001e94c   Section       80  exfuns.o(.bss)
    .bss                                     0x2001e99c   Section       33  fontupd.o(.bss)
    .bss                                     0x2001e9bd   Section       32  wavplay.o(.bss)
    .bss                                     0x2001e9dd   Section       17  audioplay.o(.bss)
    .bss                                     0x2001e9f0   Section       96  libspace.o(.bss)
    HEAP                                     0x2001ea50   Section        0  startup_stm32f40_41xxx.o(HEAP)
    STACK                                    0x2001ea50   Section     1024  startup_stm32f40_41xxx.o(STACK)
    Heap_Mem                                 0x2001ea50   Data           0  startup_stm32f40_41xxx.o(HEAP)
    Stack_Mem                                0x2001ea50   Data        1024  startup_stm32f40_41xxx.o(STACK)
    __initial_sp                             0x2001ee50   Data           0  startup_stm32f40_41xxx.o(STACK)
    .ARM.__AT_0x68000000                     0x68000000   Section    983040  malloc.o(.ARM.__AT_0x68000000)
    .ARM.__AT_0x680F0000                     0x680f0000   Section    61440  malloc.o(.ARM.__AT_0x680F0000)

    Global Symbols

    Symbol Name                              Value     Ov Type        Size  Object(Section)

    BuildAttributes$$THM_ISAv4$E$P$D$K$B$S$7EM$VFPi3$EXTD16$VFPS$VFMA$PE$A:L22UL41UL21$X:L11$S22US41US21$IEEE1$IW$USESV6$~STKCKD$USESV7$~SHL$OSPACE$ROPI$EBA8$UX$STANDARDLIB$REQ8$PRES8$EABIv2 0x00000000   Number         0  anon$$obj.o ABSOLUTE
    __ARM_use_no_argv                        0x00000000   Number         0  test.o ABSOLUTE
    _printf_flags                            0x00000000   Number         0  printf_stubs.o ABSOLUTE
    _printf_return_value                     0x00000000   Number         0  printf_stubs.o ABSOLUTE
    _printf_sizespec                         0x00000000   Number         0  printf_stubs.o ABSOLUTE
    _printf_widthprec                        0x00000000   Number         0  printf_stubs.o ABSOLUTE
    __ARM_exceptions_init                     - Undefined Weak Reference
    __alloca_initialize                       - Undefined Weak Reference
    __arm_preinit_                            - Undefined Weak Reference
    __cpp_initialize__aeabi_                  - Undefined Weak Reference
    __cxa_finalize                            - Undefined Weak Reference
    __rt_locale                               - Undefined Weak Reference
    __sigvec_lookup                           - Undefined Weak Reference
    _atexit_init                              - Undefined Weak Reference
    _call_atexit_fns                          - Undefined Weak Reference
    _clock_init                               - Undefined Weak Reference
    _fp_trap_init                             - Undefined Weak Reference
    _fp_trap_shutdown                         - Undefined Weak Reference
    _get_lc_collate                           - Undefined Weak Reference
    _get_lc_ctype                             - Undefined Weak Reference
    _get_lc_monetary                          - Undefined Weak Reference
    _get_lc_numeric                           - Undefined Weak Reference
    _get_lc_time                              - Undefined Weak Reference
    _getenv_init                              - Undefined Weak Reference
    _handle_redirection                       - Undefined Weak Reference
    _init_alloc                               - Undefined Weak Reference
    _init_user_alloc                          - Undefined Weak Reference
    _initio                                   - Undefined Weak Reference
    _mutex_acquire                            - Undefined Weak Reference
    _mutex_release                            - Undefined Weak Reference
    _printf_mbtowc                            - Undefined Weak Reference
    _printf_truncate_signed                   - Undefined Weak Reference
    _printf_truncate_unsigned                 - Undefined Weak Reference
    _rand_init                                - Undefined Weak Reference
    _signal_finish                            - Undefined Weak Reference
    _signal_init                              - Undefined Weak Reference
    _terminate_alloc                          - Undefined Weak Reference
    _terminate_user_alloc                     - Undefined Weak Reference
    _terminateio                              - Undefined Weak Reference
    __Vectors_Size                           0x00000188   Number         0  startup_stm32f40_41xxx.o ABSOLUTE
    __Vectors                                0x08000000   Data           4  startup_stm32f40_41xxx.o(RESET)
    __Vectors_End                            0x08000188   Data           0  startup_stm32f40_41xxx.o(RESET)
    __main                                   0x08000189   Thumb Code     8  __main.o(!!!main)
    __scatterload                            0x08000191   Thumb Code     0  __scatter.o(!!!scatter)
    __scatterload_rt2                        0x08000191   Thumb Code    44  __scatter.o(!!!scatter)
    __scatterload_rt2_thumb_only             0x08000191   Thumb Code     0  __scatter.o(!!!scatter)
    __scatterload_null                       0x0800019f   Thumb Code     0  __scatter.o(!!!scatter)
    __decompress                             0x080001c5   Thumb Code    90  __dczerorl2.o(!!dczerorl2)
    __decompress1                            0x080001c5   Thumb Code     0  __dczerorl2.o(!!dczerorl2)
    __scatterload_zeroinit                   0x08000221   Thumb Code    28  __scatter_zi.o(!!handler_zi)
    _printf_d                                0x0800023d   Thumb Code     0  _printf_d.o(.ARM.Collect$$_printf_percent$$00000009)
    _printf_percent                          0x0800023d   Thumb Code     0  _printf_percent.o(.ARM.Collect$$_printf_percent$$00000000)
    _printf_u                                0x08000243   Thumb Code     0  _printf_u.o(.ARM.Collect$$_printf_percent$$0000000A)
    _printf_x                                0x08000249   Thumb Code     0  _printf_x.o(.ARM.Collect$$_printf_percent$$0000000C)
    _printf_c                                0x0800024f   Thumb Code     0  _printf_c.o(.ARM.Collect$$_printf_percent$$00000013)
    _printf_s                                0x08000255   Thumb Code     0  _printf_s.o(.ARM.Collect$$_printf_percent$$00000014)
    _printf_percent_end                      0x0800025b   Thumb Code     0  _printf_percent_end.o(.ARM.Collect$$_printf_percent$$00000017)
    __rt_lib_init                            0x0800025f   Thumb Code     0  libinit.o(.ARM.Collect$$libinit$$00000000)
    __rt_lib_init_fp_1                       0x08000261   Thumb Code     0  libinit2.o(.ARM.Collect$$libinit$$00000001)
    __rt_lib_init_alloca_1                   0x08000265   Thumb Code     0  libinit2.o(.ARM.Collect$$libinit$$0000002E)
    __rt_lib_init_argv_1                     0x08000265   Thumb Code     0  libinit2.o(.ARM.Collect$$libinit$$0000002C)
    __rt_lib_init_atexit_1                   0x08000265   Thumb Code     0  libinit2.o(.ARM.Collect$$libinit$$0000001B)
    __rt_lib_init_clock_1                    0x08000265   Thumb Code     0  libinit2.o(.ARM.Collect$$libinit$$00000021)
    __rt_lib_init_cpp_1                      0x08000265   Thumb Code     0  libinit2.o(.ARM.Collect$$libinit$$00000032)
    __rt_lib_init_exceptions_1               0x08000265   Thumb Code     0  libinit2.o(.ARM.Collect$$libinit$$00000030)
    __rt_lib_init_fp_trap_1                  0x08000265   Thumb Code     0  libinit2.o(.ARM.Collect$$libinit$$0000001F)
    __rt_lib_init_getenv_1                   0x08000265   Thumb Code     0  libinit2.o(.ARM.Collect$$libinit$$00000023)
    __rt_lib_init_heap_1                     0x08000265   Thumb Code     0  libinit2.o(.ARM.Collect$$libinit$$0000000A)
    __rt_lib_init_lc_collate_1               0x08000265   Thumb Code     0  libinit2.o(.ARM.Collect$$libinit$$00000011)
    __rt_lib_init_lc_ctype_1                 0x08000265   Thumb Code     0  libinit2.o(.ARM.Collect$$libinit$$00000013)
    __rt_lib_init_lc_monetary_1              0x08000265   Thumb Code     0  libinit2.o(.ARM.Collect$$libinit$$00000015)
    __rt_lib_init_lc_numeric_1               0x08000265   Thumb Code     0  libinit2.o(.ARM.Collect$$libinit$$00000017)
    __rt_lib_init_lc_time_1                  0x08000265   Thumb Code     0  libinit2.o(.ARM.Collect$$libinit$$00000019)
    __rt_lib_init_preinit_1                  0x08000265   Thumb Code     0  libinit2.o(.ARM.Collect$$libinit$$00000004)
    __rt_lib_init_rand_1                     0x08000265   Thumb Code     0  libinit2.o(.ARM.Collect$$libinit$$0000000E)
    __rt_lib_init_return                     0x08000265   Thumb Code     0  libinit2.o(.ARM.Collect$$libinit$$00000033)
    __rt_lib_init_signal_1                   0x08000265   Thumb Code     0  libinit2.o(.ARM.Collect$$libinit$$0000001D)
    __rt_lib_init_stdio_1                    0x08000265   Thumb Code     0  libinit2.o(.ARM.Collect$$libinit$$00000025)
    __rt_lib_init_user_alloc_1               0x08000265   Thumb Code     0  libinit2.o(.ARM.Collect$$libinit$$0000000C)
    __rt_lib_shutdown                        0x08000267   Thumb Code     0  libshutdown.o(.ARM.Collect$$libshutdown$$00000000)
    __rt_lib_shutdown_fp_trap_1              0x08000269   Thumb Code     0  libshutdown2.o(.ARM.Collect$$libshutdown$$00000006)
    __rt_lib_shutdown_heap_1                 0x08000269   Thumb Code     0  libshutdown2.o(.ARM.Collect$$libshutdown$$0000000E)
    __rt_lib_shutdown_return                 0x08000269   Thumb Code     0  libshutdown2.o(.ARM.Collect$$libshutdown$$0000000F)
    __rt_lib_shutdown_signal_1               0x08000269   Thumb Code     0  libshutdown2.o(.ARM.Collect$$libshutdown$$00000009)
    __rt_lib_shutdown_stdio_1                0x08000269   Thumb Code     0  libshutdown2.o(.ARM.Collect$$libshutdown$$00000003)
    __rt_lib_shutdown_user_alloc_1           0x08000269   Thumb Code     0  libshutdown2.o(.ARM.Collect$$libshutdown$$0000000B)
    __rt_entry                               0x0800026b   Thumb Code     0  __rtentry.o(.ARM.Collect$$rtentry$$00000000)
    __rt_entry_presh_1                       0x0800026b   Thumb Code     0  __rtentry2.o(.ARM.Collect$$rtentry$$00000002)
    __rt_entry_sh                            0x0800026b   Thumb Code     0  __rtentry4.o(.ARM.Collect$$rtentry$$00000004)
    __rt_entry_li                            0x08000271   Thumb Code     0  __rtentry2.o(.ARM.Collect$$rtentry$$0000000A)
    __rt_entry_postsh_1                      0x08000271   Thumb Code     0  __rtentry2.o(.ARM.Collect$$rtentry$$00000009)
    __rt_entry_main                          0x08000275   Thumb Code     0  __rtentry2.o(.ARM.Collect$$rtentry$$0000000D)
    __rt_entry_postli_1                      0x08000275   Thumb Code     0  __rtentry2.o(.ARM.Collect$$rtentry$$0000000C)
    __rt_exit                                0x0800027d   Thumb Code     0  rtexit.o(.ARM.Collect$$rtexit$$00000000)
    __rt_exit_ls                             0x0800027f   Thumb Code     0  rtexit2.o(.ARM.Collect$$rtexit$$00000003)
    __rt_exit_prels_1                        0x0800027f   Thumb Code     0  rtexit2.o(.ARM.Collect$$rtexit$$00000002)
    __rt_exit_exit                           0x08000283   Thumb Code     0  rtexit2.o(.ARM.Collect$$rtexit$$00000004)
    Reset_Handler                            0x08000289   Thumb Code    14  startup_stm32f40_41xxx.o(.text)
    NMI_Handler                              0x08000297   Thumb Code     2  startup_stm32f40_41xxx.o(.text)
    HardFault_Handler                        0x08000299   Thumb Code     2  startup_stm32f40_41xxx.o(.text)
    MemManage_Handler                        0x0800029b   Thumb Code     2  startup_stm32f40_41xxx.o(.text)
    BusFault_Handler                         0x0800029d   Thumb Code     2  startup_stm32f40_41xxx.o(.text)
    UsageFault_Handler                       0x0800029f   Thumb Code     2  startup_stm32f40_41xxx.o(.text)
    SVC_Handler                              0x080002a1   Thumb Code     2  startup_stm32f40_41xxx.o(.text)
    DebugMon_Handler                         0x080002a3   Thumb Code     2  startup_stm32f40_41xxx.o(.text)
    PendSV_Handler                           0x080002a5   Thumb Code     2  startup_stm32f40_41xxx.o(.text)
    SysTick_Handler                          0x080002a7   Thumb Code     2  startup_stm32f40_41xxx.o(.text)
    ADC_IRQHandler                           0x080002a9   Thumb Code     0  startup_stm32f40_41xxx.o(.text)
    CAN1_RX0_IRQHandler                      0x080002a9   Thumb Code     0  startup_stm32f40_41xxx.o(.text)
    CAN1_RX1_IRQHandler                      0x080002a9   Thumb Code     0  startup_stm32f40_41xxx.o(.text)
    CAN1_SCE_IRQHandler                      0x080002a9   Thumb Code     0  startup_stm32f40_41xxx.o(.text)
    CAN1_TX_IRQHandler                       0x080002a9   Thumb Code     0  startup_stm32f40_41xxx.o(.text)
    CAN2_RX0_IRQHandler                      0x080002a9   Thumb Code     0  startup_stm32f40_41xxx.o(.text)
    CAN2_RX1_IRQHandler                      0x080002a9   Thumb Code     0  startup_stm32f40_41xxx.o(.text)
    CAN2_SCE_IRQHandler                      0x080002a9   Thumb Code     0  startup_stm32f40_41xxx.o(.text)
    CAN2_TX_IRQHandler                       0x080002a9   Thumb Code     0  startup_stm32f40_41xxx.o(.text)
    CRYP_IRQHandler                          0x080002a9   Thumb Code     0  startup_stm32f40_41xxx.o(.text)
    DCMI_IRQHandler                          0x080002a9   Thumb Code     0  startup_stm32f40_41xxx.o(.text)
    DMA1_Stream0_IRQHandler                  0x080002a9   Thumb Code     0  startup_stm32f40_41xxx.o(.text)
    DMA1_Stream1_IRQHandler                  0x080002a9   Thumb Code     0  startup_stm32f40_41xxx.o(.text)
    DMA1_Stream2_IRQHandler                  0x080002a9   Thumb Code     0  startup_stm32f40_41xxx.o(.text)
    DMA1_Stream3_IRQHandler                  0x080002a9   Thumb Code     0  startup_stm32f40_41xxx.o(.text)
    DMA1_Stream5_IRQHandler                  0x080002a9   Thumb Code     0  startup_stm32f40_41xxx.o(.text)
    DMA1_Stream6_IRQHandler                  0x080002a9   Thumb Code     0  startup_stm32f40_41xxx.o(.text)
    DMA1_Stream7_IRQHandler                  0x080002a9   Thumb Code     0  startup_stm32f40_41xxx.o(.text)
    DMA2_Stream0_IRQHandler                  0x080002a9   Thumb Code     0  startup_stm32f40_41xxx.o(.text)
    DMA2_Stream1_IRQHandler                  0x080002a9   Thumb Code     0  startup_stm32f40_41xxx.o(.text)
    DMA2_Stream2_IRQHandler                  0x080002a9   Thumb Code     0  startup_stm32f40_41xxx.o(.text)
    DMA2_Stream3_IRQHandler                  0x080002a9   Thumb Code     0  startup_stm32f40_41xxx.o(.text)
    DMA2_Stream4_IRQHandler                  0x080002a9   Thumb Code     0  startup_stm32f40_41xxx.o(.text)
    DMA2_Stream5_IRQHandler                  0x080002a9   Thumb Code     0  startup_stm32f40_41xxx.o(.text)
    DMA2_Stream6_IRQHandler                  0x080002a9   Thumb Code     0  startup_stm32f40_41xxx.o(.text)
    DMA2_Stream7_IRQHandler                  0x080002a9   Thumb Code     0  startup_stm32f40_41xxx.o(.text)
    ETH_IRQHandler                           0x080002a9   Thumb Code     0  startup_stm32f40_41xxx.o(.text)
    ETH_WKUP_IRQHandler                      0x080002a9   Thumb Code     0  startup_stm32f40_41xxx.o(.text)
    EXTI0_IRQHandler                         0x080002a9   Thumb Code     0  startup_stm32f40_41xxx.o(.text)
    EXTI15_10_IRQHandler                     0x080002a9   Thumb Code     0  startup_stm32f40_41xxx.o(.text)
    EXTI1_IRQHandler                         0x080002a9   Thumb Code     0  startup_stm32f40_41xxx.o(.text)
    EXTI2_IRQHandler                         0x080002a9   Thumb Code     0  startup_stm32f40_41xxx.o(.text)
    EXTI3_IRQHandler                         0x080002a9   Thumb Code     0  startup_stm32f40_41xxx.o(.text)
    EXTI4_IRQHandler                         0x080002a9   Thumb Code     0  startup_stm32f40_41xxx.o(.text)
    EXTI9_5_IRQHandler                       0x080002a9   Thumb Code     0  startup_stm32f40_41xxx.o(.text)
    FLASH_IRQHandler                         0x080002a9   Thumb Code     0  startup_stm32f40_41xxx.o(.text)
    FPU_IRQHandler                           0x080002a9   Thumb Code     0  startup_stm32f40_41xxx.o(.text)
    FSMC_IRQHandler                          0x080002a9   Thumb Code     0  startup_stm32f40_41xxx.o(.text)
    HASH_RNG_IRQHandler                      0x080002a9   Thumb Code     0  startup_stm32f40_41xxx.o(.text)
    I2C1_ER_IRQHandler                       0x080002a9   Thumb Code     0  startup_stm32f40_41xxx.o(.text)
    I2C1_EV_IRQHandler                       0x080002a9   Thumb Code     0  startup_stm32f40_41xxx.o(.text)
    I2C2_ER_IRQHandler                       0x080002a9   Thumb Code     0  startup_stm32f40_41xxx.o(.text)
    I2C2_EV_IRQHandler                       0x080002a9   Thumb Code     0  startup_stm32f40_41xxx.o(.text)
    I2C3_ER_IRQHandler                       0x080002a9   Thumb Code     0  startup_stm32f40_41xxx.o(.text)
    I2C3_EV_IRQHandler                       0x080002a9   Thumb Code     0  startup_stm32f40_41xxx.o(.text)
    OTG_FS_IRQHandler                        0x080002a9   Thumb Code     0  startup_stm32f40_41xxx.o(.text)
    OTG_FS_WKUP_IRQHandler                   0x080002a9   Thumb Code     0  startup_stm32f40_41xxx.o(.text)
    OTG_HS_EP1_IN_IRQHandler                 0x080002a9   Thumb Code     0  startup_stm32f40_41xxx.o(.text)
    OTG_HS_EP1_OUT_IRQHandler                0x080002a9   Thumb Code     0  startup_stm32f40_41xxx.o(.text)
    OTG_HS_IRQHandler                        0x080002a9   Thumb Code     0  startup_stm32f40_41xxx.o(.text)
    OTG_HS_WKUP_IRQHandler                   0x080002a9   Thumb Code     0  startup_stm32f40_41xxx.o(.text)
    PVD_IRQHandler                           0x080002a9   Thumb Code     0  startup_stm32f40_41xxx.o(.text)
    RCC_IRQHandler                           0x080002a9   Thumb Code     0  startup_stm32f40_41xxx.o(.text)
    RTC_Alarm_IRQHandler                     0x080002a9   Thumb Code     0  startup_stm32f40_41xxx.o(.text)
    RTC_WKUP_IRQHandler                      0x080002a9   Thumb Code     0  startup_stm32f40_41xxx.o(.text)
    SPI1_IRQHandler                          0x080002a9   Thumb Code     0  startup_stm32f40_41xxx.o(.text)
    SPI2_IRQHandler                          0x080002a9   Thumb Code     0  startup_stm32f40_41xxx.o(.text)
    SPI3_IRQHandler                          0x080002a9   Thumb Code     0  startup_stm32f40_41xxx.o(.text)
    TAMP_STAMP_IRQHandler                    0x080002a9   Thumb Code     0  startup_stm32f40_41xxx.o(.text)
    TIM1_BRK_TIM9_IRQHandler                 0x080002a9   Thumb Code     0  startup_stm32f40_41xxx.o(.text)
    TIM1_CC_IRQHandler                       0x080002a9   Thumb Code     0  startup_stm32f40_41xxx.o(.text)
    TIM1_TRG_COM_TIM11_IRQHandler            0x080002a9   Thumb Code     0  startup_stm32f40_41xxx.o(.text)
    TIM1_UP_TIM10_IRQHandler                 0x080002a9   Thumb Code     0  startup_stm32f40_41xxx.o(.text)
    TIM2_IRQHandler                          0x080002a9   Thumb Code     0  startup_stm32f40_41xxx.o(.text)
    TIM3_IRQHandler                          0x080002a9   Thumb Code     0  startup_stm32f40_41xxx.o(.text)
    TIM5_IRQHandler                          0x080002a9   Thumb Code     0  startup_stm32f40_41xxx.o(.text)
    TIM6_DAC_IRQHandler                      0x080002a9   Thumb Code     0  startup_stm32f40_41xxx.o(.text)
    TIM7_IRQHandler                          0x080002a9   Thumb Code     0  startup_stm32f40_41xxx.o(.text)
    TIM8_BRK_TIM12_IRQHandler                0x080002a9   Thumb Code     0  startup_stm32f40_41xxx.o(.text)
    TIM8_CC_IRQHandler                       0x080002a9   Thumb Code     0  startup_stm32f40_41xxx.o(.text)
    TIM8_TRG_COM_TIM14_IRQHandler            0x080002a9   Thumb Code     0  startup_stm32f40_41xxx.o(.text)
    TIM8_UP_TIM13_IRQHandler                 0x080002a9   Thumb Code     0  startup_stm32f40_41xxx.o(.text)
    UART4_IRQHandler                         0x080002a9   Thumb Code     0  startup_stm32f40_41xxx.o(.text)
    UART5_IRQHandler                         0x080002a9   Thumb Code     0  startup_stm32f40_41xxx.o(.text)
    USART2_IRQHandler                        0x080002a9   Thumb Code     0  startup_stm32f40_41xxx.o(.text)
    USART3_IRQHandler                        0x080002a9   Thumb Code     0  startup_stm32f40_41xxx.o(.text)
    USART6_IRQHandler                        0x080002a9   Thumb Code     0  startup_stm32f40_41xxx.o(.text)
    WWDG_IRQHandler                          0x080002a9   Thumb Code     0  startup_stm32f40_41xxx.o(.text)
    __user_initial_stackheap                 0x080002ad   Thumb Code     0  startup_stm32f40_41xxx.o(.text)
    __use_no_semihosting                     0x080002cd   Thumb Code     2  use_no_semi_2.o(.text)
    __aeabi_ldivmod                          0x080002cf   Thumb Code     0  llsdiv.o(.text)
    _ll_sdiv                                 0x080002cf   Thumb Code    72  llsdiv.o(.text)
    __2printf                                0x08000319   Thumb Code    20  noretval__2printf.o(.text)
    _printf_pre_padding                      0x08000331   Thumb Code    44  _printf_pad.o(.text)
    _printf_post_padding                     0x0800035d   Thumb Code    34  _printf_pad.o(.text)
    _printf_str                              0x0800037f   Thumb Code    82  _printf_str.o(.text)
    _printf_int_dec                          0x080003d1   Thumb Code   104  _printf_dec.o(.text)
    _printf_int_hex                          0x08000449   Thumb Code    84  _printf_hex_int.o(.text)
    _printf_longlong_hex                     0x08000449   Thumb Code     0  _printf_hex_int.o(.text)
    __printf                                 0x080004a1   Thumb Code   388  __printf_flags_ss_wp.o(.text)
    strcpy                                   0x08000629   Thumb Code    72  strcpy.o(.text)
    strcat                                   0x08000671   Thumb Code    24  strcat.o(.text)
    __aeabi_memcpy                           0x08000689   Thumb Code     0  rt_memcpy_v6.o(.text)
    __rt_memcpy                              0x08000689   Thumb Code   138  rt_memcpy_v6.o(.text)
    _memcpy_lastbytes                        0x080006ef   Thumb Code     0  rt_memcpy_v6.o(.text)
    strcmp                                   0x08000715   Thumb Code   128  strcmpv7m.o(.text)
    __use_two_region_memory                  0x08000795   Thumb Code     2  heapauxi.o(.text)
    __rt_heap_escrow$2region                 0x08000797   Thumb Code     2  heapauxi.o(.text)
    __rt_heap_expand$2region                 0x08000799   Thumb Code     2  heapauxi.o(.text)
    __I$use$semihosting                      0x0800079b   Thumb Code     0  use_no_semi.o(.text)
    __use_no_semihosting_swi                 0x0800079b   Thumb Code     2  use_no_semi.o(.text)
    __aeabi_uldivmod                         0x0800079d   Thumb Code     0  lludivv7m.o(.text)
    _ll_udiv                                 0x0800079d   Thumb Code   238  lludivv7m.o(.text)
    _printf_int_common                       0x0800088b   Thumb Code   178  _printf_intcommon.o(.text)
    _printf_cs_common                        0x0800093d   Thumb Code    20  _printf_char.o(.text)
    _printf_char                             0x08000951   Thumb Code    16  _printf_char.o(.text)
    _printf_string                           0x08000961   Thumb Code     8  _printf_char.o(.text)
    _printf_char_file                        0x08000969   Thumb Code    32  _printf_char_file.o(.text)
    __aeabi_memcpy4                          0x0800098d   Thumb Code     0  rt_memcpy_w.o(.text)
    __aeabi_memcpy8                          0x0800098d   Thumb Code     0  rt_memcpy_w.o(.text)
    __rt_memcpy_w                            0x0800098d   Thumb Code   100  rt_memcpy_w.o(.text)
    _memcpy_lastbytes_aligned                0x080009d5   Thumb Code     0  rt_memcpy_w.o(.text)
    _printf_char_common                      0x080009fb   Thumb Code    32  _printf_char_common.o(.text)
    ferror                                   0x08000a21   Thumb Code     8  ferror.o(.text)
    __user_setup_stackheap                   0x08000a29   Thumb Code    74  sys_stackheap_outer.o(.text)
    exit                                     0x08000a73   Thumb Code    12  exit.o(.text)
    __user_libspace                          0x08000a81   Thumb Code     8  libspace.o(.text)
    __user_perproc_libspace                  0x08000a81   Thumb Code     0  libspace.o(.text)
    __user_perthread_libspace                0x08000a81   Thumb Code     0  libspace.o(.text)
    CmdError                                 0x08000a89   Thumb Code    50  sdio_sdcard.o(i.CmdError)
    CmdResp1Error                            0x08000ac1   Thumb Code    92  sdio_sdcard.o(i.CmdResp1Error)
    CmdResp2Error                            0x08000b21   Thumb Code    98  sdio_sdcard.o(i.CmdResp2Error)
    CmdResp3Error                            0x08000b89   Thumb Code    58  sdio_sdcard.o(i.CmdResp3Error)
    CmdResp6Error                            0x08000bc9   Thumb Code   156  sdio_sdcard.o(i.CmdResp6Error)
    CmdResp7Error                            0x08000c69   Thumb Code    88  sdio_sdcard.o(i.CmdResp7Error)
    DMA1_Stream4_IRQHandler                  0x08000cc5   Thumb Code    32  i2s.o(i.DMA1_Stream4_IRQHandler)
    FindSCR                                  0x08000ced   Thumb Code   344  sdio_sdcard.o(i.FindSCR)
    GPIO_AF_Set                              0x08000e49   Thumb Code    64  sys.o(i.GPIO_AF_Set)
    GPIO_Set                                 0x08000e89   Thumb Code   222  sys.o(i.GPIO_Set)
    Get_HzMat                                0x08000f69   Thumb Code   220  text.o(i.Get_HzMat)
    I2S2_Init                                0x08001049   Thumb Code   162  i2s.o(i.I2S2_Init)
    I2S2_SampleRate_Set                      0x080010f5   Thumb Code   164  i2s.o(i.I2S2_SampleRate_Set)
    I2S2_TX_DMA_Init                         0x080011a5   Thumb Code   220  i2s.o(i.I2S2_TX_DMA_Init)
    I2S_Play_Start                           0x0800128d   Thumb Code    14  i2s.o(i.I2S_Play_Start)
    I2S_Play_Stop                            0x080012a1   Thumb Code    14  i2s.o(i.I2S_Play_Stop)
    IIC_Init                                 0x080012b5   Thumb Code    50  myiic.o(i.IIC_Init)
    IIC_Send_Byte                            0x080012f9   Thumb Code    90  myiic.o(i.IIC_Send_Byte)
    IIC_Start                                0x08001361   Thumb Code    64  myiic.o(i.IIC_Start)
    IIC_Stop                                 0x080013ad   Thumb Code    62  myiic.o(i.IIC_Stop)
    IIC_Wait_Ack                             0x080013f9   Thumb Code    82  myiic.o(i.IIC_Wait_Ack)
    INTX_DISABLE                             0x08001459   Thumb Code     4  sys.o(i.INTX_DISABLE)
    INTX_ENABLE                              0x0800145d   Thumb Code     4  sys.o(i.INTX_ENABLE)
    IsCardProgramming                        0x08001461   Thumb Code   148  sdio_sdcard.o(i.IsCardProgramming)
    KEY_Init                                 0x080014fd   Thumb Code    66  key.o(i.KEY_Init)
    KEY_Scan                                 0x0800154d   Thumb Code   150  key.o(i.KEY_Scan)
    LCD_Clear                                0x080015f1   Thumb Code   100  ili93xx.o(i.LCD_Clear)
    LCD_Display_Dir                          0x0800165d   Thumb Code   444  ili93xx.o(i.LCD_Display_Dir)
    LCD_Fast_DrawPoint                       0x0800181d   Thumb Code   374  ili93xx.o(i.LCD_Fast_DrawPoint)
    LCD_Fill                                 0x0800199d   Thumb Code   180  ili93xx.o(i.LCD_Fill)
    LCD_Init                                 0x08001a55   Thumb Code 14634  ili93xx.o(i.LCD_Init)
    LCD_Pow                                  0x08005389   Thumb Code    22  ili93xx.o(i.LCD_Pow)
    LCD_RD_DATA                              0x080053a1   Thumb Code    14  ili93xx.o(i.LCD_RD_DATA)
    LCD_ReadReg                              0x080053b5   Thumb Code    22  ili93xx.o(i.LCD_ReadReg)
    LCD_SSD_BackLightSet                     0x080053cd   Thumb Code    88  ili93xx.o(i.LCD_SSD_BackLightSet)
    LCD_Scan_Dir                             0x0800542d   Thumb Code   744  ili93xx.o(i.LCD_Scan_Dir)
    LCD_SetCursor                            0x08005719   Thumb Code   418  ili93xx.o(i.LCD_SetCursor)
    LCD_ShowChar                             0x080058c1   Thumb Code   272  ili93xx.o(i.LCD_ShowChar)
    LCD_ShowString                           0x080059e9   Thumb Code   102  ili93xx.o(i.LCD_ShowString)
    LCD_ShowxNum                             0x08005a4f   Thumb Code   190  ili93xx.o(i.LCD_ShowxNum)
    LCD_WR_DATA                              0x08005b0d   Thumb Code    18  ili93xx.o(i.LCD_WR_DATA)
    LCD_WR_REG                               0x08005b25   Thumb Code    18  ili93xx.o(i.LCD_WR_REG)
    LCD_WriteRAM_Prepare                     0x08005b3d   Thumb Code    10  ili93xx.o(i.LCD_WriteRAM_Prepare)
    LCD_WriteReg                             0x08005b51   Thumb Code    14  ili93xx.o(i.LCD_WriteReg)
    LED_Init                                 0x08005b65   Thumb Code    48  led.o(i.LED_Init)
    MY_NVIC_Init                             0x08005ba5   Thumb Code   116  sys.o(i.MY_NVIC_Init)
    MY_NVIC_PriorityGroupConfig              0x08005c1d   Thumb Code    32  sys.o(i.MY_NVIC_PriorityGroupConfig)
    MY_NVIC_SetVectorTable                   0x08005c45   Thumb Code    12  sys.o(i.MY_NVIC_SetVectorTable)
    SDEnWideBus                              0x08005c55   Thumb Code   118  sdio_sdcard.o(i.SDEnWideBus)
    SDIO_Clock_Set                           0x08005cd5   Thumb Code    16  sdio_sdcard.o(i.SDIO_Clock_Set)
    SDIO_IRQHandler                          0x08005ce9   Thumb Code     8  sdio_sdcard.o(i.SDIO_IRQHandler)
    SDIO_Send_Cmd                            0x08005cf1   Thumb Code    40  sdio_sdcard.o(i.SDIO_Send_Cmd)
    SDIO_Send_Data_Cfg                       0x08005d1d   Thumb Code    50  sdio_sdcard.o(i.SDIO_Send_Data_Cfg)
    SD_DMA_Config                            0x08005d55   Thumb Code   138  sdio_sdcard.o(i.SD_DMA_Config)
    SD_EnableWideBusOperation                0x08005de9   Thumb Code    94  sdio_sdcard.o(i.SD_EnableWideBusOperation)
    SD_GetCardInfo                           0x08005e51   Thumb Code   772  sdio_sdcard.o(i.SD_GetCardInfo)
    SD_Init                                  0x08006165   Thumb Code   348  sdio_sdcard.o(i.SD_Init)
    SD_InitializeCards                       0x080062dd   Thumb Code   256  sdio_sdcard.o(i.SD_InitializeCards)
    SD_PowerON                               0x080063f1   Thumb Code   366  sdio_sdcard.o(i.SD_PowerON)
    SD_ProcessIRQSrc                         0x08006571   Thumb Code   346  sdio_sdcard.o(i.SD_ProcessIRQSrc)
    SD_ReadBlock                             0x080066dd   Thumb Code   554  sdio_sdcard.o(i.SD_ReadBlock)
    SD_ReadDisk                              0x08006929   Thumb Code   152  sdio_sdcard.o(i.SD_ReadDisk)
    SD_ReadMultiBlocks                       0x080069c9   Thumb Code   670  sdio_sdcard.o(i.SD_ReadMultiBlocks)
    SD_SelectDeselect                        0x08006c8d   Thumb Code    22  sdio_sdcard.o(i.SD_SelectDeselect)
    SD_SetDeviceMode                         0x08006ca5   Thumb Code    20  sdio_sdcard.o(i.SD_SetDeviceMode)
    SD_WriteBlock                            0x08006cbd   Thumb Code   804  sdio_sdcard.o(i.SD_WriteBlock)
    SD_WriteDisk                             0x08007001   Thumb Code   152  sdio_sdcard.o(i.SD_WriteDisk)
    SD_WriteMultiBlocks                      0x080070a1   Thumb Code   858  sdio_sdcard.o(i.SD_WriteMultiBlocks)
    SPI1_Init                                0x0800741d   Thumb Code   164  spi.o(i.SPI1_Init)
    SPI1_ReadWriteByte                       0x080074cd   Thumb Code    42  spi.o(i.SPI1_ReadWriteByte)
    SPI1_SetSpeed                            0x080074fd   Thumb Code    40  spi.o(i.SPI1_SetSpeed)
    Show_Font                                0x08007529   Thumb Code   190  text.o(i.Show_Font)
    Show_Str                                 0x080075f1   Thumb Code   194  text.o(i.Show_Str)
    Stm32_Clock_Init                         0x080076b5   Thumb Code    90  sys.o(i.Stm32_Clock_Init)
    Sys_Clock_Set                            0x0800771d   Thumb Code   254  sys.o(i.Sys_Clock_Set)
    TIM4_IRQHandler                          0x08007829   Thumb Code    50  usmart.o(i.TIM4_IRQHandler)
    Timer4_Init                              0x08007865   Thumb Code    72  usmart.o(i.Timer4_Init)
    USART1_IRQHandler                        0x080078b5   Thumb Code   116  usart.o(i.USART1_IRQHandler)
    W25QXX_Erase_Sector                      0x08007935   Thumb Code    70  w25qxx.o(i.W25QXX_Erase_Sector)
    W25QXX_Init                              0x0800798d   Thumb Code   106  w25qxx.o(i.W25QXX_Init)
    W25QXX_Read                              0x08007a0d   Thumb Code    74  w25qxx.o(i.W25QXX_Read)
    W25QXX_ReadID                            0x08007a5d   Thumb Code    64  w25qxx.o(i.W25QXX_ReadID)
    W25QXX_ReadSR                            0x08007aa5   Thumb Code    36  w25qxx.o(i.W25QXX_ReadSR)
    W25QXX_Wait_Busy                         0x08007ad1   Thumb Code    18  w25qxx.o(i.W25QXX_Wait_Busy)
    W25QXX_Write                             0x08007ae5   Thumb Code   180  w25qxx.o(i.W25QXX_Write)
    W25QXX_Write_Enable                      0x08007b9d   Thumb Code    24  w25qxx.o(i.W25QXX_Write_Enable)
    W25QXX_Write_NoCheck                     0x08007bbd   Thumb Code    70  w25qxx.o(i.W25QXX_Write_NoCheck)
    W25QXX_Write_Page                        0x08007c05   Thumb Code    80  w25qxx.o(i.W25QXX_Write_Page)
    WM8978_3D_Set                            0x08007c59   Thumb Code    18  wm8978.o(i.WM8978_3D_Set)
    WM8978_ADDA_Cfg                          0x08007c6b   Thumb Code    64  wm8978.o(i.WM8978_ADDA_Cfg)
    WM8978_AUX_Gain                          0x08007cab   Thumb Code    54  wm8978.o(i.WM8978_AUX_Gain)
    WM8978_EQ1_Set                           0x08007ce1   Thumb Code    50  wm8978.o(i.WM8978_EQ1_Set)
    WM8978_EQ2_Set                           0x08007d13   Thumb Code    40  wm8978.o(i.WM8978_EQ2_Set)
    WM8978_EQ3_Set                           0x08007d3b   Thumb Code    40  wm8978.o(i.WM8978_EQ3_Set)
    WM8978_EQ4_Set                           0x08007d63   Thumb Code    40  wm8978.o(i.WM8978_EQ4_Set)
    WM8978_EQ5_Set                           0x08007d8b   Thumb Code    40  wm8978.o(i.WM8978_EQ5_Set)
    WM8978_EQ_3D_Dir                         0x08007db3   Thumb Code    34  wm8978.o(i.WM8978_EQ_3D_Dir)
    WM8978_HPvol_Set                         0x08007dd5   Thumb Code    46  wm8978.o(i.WM8978_HPvol_Set)
    WM8978_I2S_Cfg                           0x08007e03   Thumb Code    28  wm8978.o(i.WM8978_I2S_Cfg)
    WM8978_Init                              0x08007e21   Thumb Code   224  wm8978.o(i.WM8978_Init)
    WM8978_Input_Cfg                         0x08007f0d   Thumb Code   102  wm8978.o(i.WM8978_Input_Cfg)
    WM8978_LINEIN_Gain                       0x08007f73   Thumb Code    54  wm8978.o(i.WM8978_LINEIN_Gain)
    WM8978_Output_Cfg                        0x08007fa9   Thumb Code    42  wm8978.o(i.WM8978_Output_Cfg)
    WM8978_Read_Reg                          0x08007fd5   Thumb Code    10  wm8978.o(i.WM8978_Read_Reg)
    WM8978_SPKvol_Set                        0x08007fe5   Thumb Code    34  wm8978.o(i.WM8978_SPKvol_Set)
    WM8978_Write_Reg                         0x08008009   Thumb Code    80  wm8978.o(i.WM8978_Write_Reg)
    _is_digit                                0x0800805d   Thumb Code    14  __printf_wp.o(i._is_digit)
    _sys_exit                                0x0800806b   Thumb Code     6  usart.o(i._sys_exit)
    audio_get_tnum                           0x08008071   Thumb Code   116  audioplay.o(i.audio_get_tnum)
    audio_index_show                         0x080080e5   Thumb Code    64  audioplay.o(i.audio_index_show)
    audio_msg_show                           0x08008125   Thumb Code   242  audioplay.o(i.audio_msg_show)
    audio_play                               0x08008225   Thumb Code   578  audioplay.o(i.audio_play)
    audio_play_song                          0x080084b9   Thumb Code    44  audioplay.o(i.audio_play_song)
    audio_start                              0x080084f5   Thumb Code    14  audioplay.o(i.audio_start)
    audio_stop                               0x08008509   Thumb Code    14  audioplay.o(i.audio_stop)
    char_upper                               0x0800851d   Thumb Code    26  exfuns.o(i.char_upper)
    clust2sect                               0x0800860f   Thumb Code    26  ff.o(i.clust2sect)
    convert_from_bytes_to_power_of_two       0x080086b9   Thumb Code    18  sdio_sdcard.o(i.convert_from_bytes_to_power_of_two)
    delay_init                               0x08008a11   Thumb Code    56  delay.o(i.delay_init)
    delay_ms                                 0x08008a51   Thumb Code    56  delay.o(i.delay_ms)
    delay_us                                 0x08008a89   Thumb Code    56  delay.o(i.delay_us)
    delay_xms                                0x08008ac5   Thumb Code    56  delay.o(i.delay_xms)
    dir_sdi                                  0x08008f45   Thumb Code   158  ff.o(i.dir_sdi)
    disk_initialize                          0x08008fe5   Thumb Code    52  diskio.o(i.disk_initialize)
    disk_ioctl                               0x0800901d   Thumb Code   170  diskio.o(i.disk_ioctl)
    disk_read                                0x080090d1   Thumb Code   122  diskio.o(i.disk_read)
    disk_status                              0x0800914b   Thumb Code     6  diskio.o(i.disk_status)
    disk_write                               0x08009151   Thumb Code   122  diskio.o(i.disk_write)
    exfuns_init                              0x080091cd   Thumb Code   114  exfuns.o(i.exfuns_init)
    f_close                                  0x08009251   Thumb Code    36  ff.o(i.f_close)
    f_lseek                                  0x08009275   Thumb Code   654  ff.o(i.f_lseek)
    f_mount                                  0x08009505   Thumb Code    86  ff.o(i.f_mount)
    f_open                                   0x08009561   Thumb Code   384  ff.o(i.f_open)
    f_opendir                                0x080096e1   Thumb Code   136  ff.o(i.f_opendir)
    f_read                                   0x08009769   Thumb Code   432  ff.o(i.f_read)
    f_readdir                                0x08009919   Thumb Code   114  ff.o(i.f_readdir)
    f_sync                                   0x0800998b   Thumb Code   176  ff.o(i.f_sync)
    f_typetell                               0x08009a3d   Thumb Code   172  exfuns.o(i.f_typetell)
    ff_convert                               0x08009aed   Thumb Code   146  mycc936.o(i.ff_convert)
    ff_memalloc                              0x08009b85   Thumb Code    14  diskio.o(i.ff_memalloc)
    ff_memfree                               0x08009b93   Thumb Code    14  diskio.o(i.ff_memfree)
    ff_wtoupper                              0x08009ba1   Thumb Code    46  mycc936.o(i.ff_wtoupper)
    font_init                                0x0800a071   Thumb Code    64  fontupd.o(i.font_init)
    fputc                                    0x0800a0b5   Thumb Code    22  usart.o(i.fputc)
    get_fat                                  0x0800a199   Thumb Code   232  ff.o(i.get_fat)
    get_fattime                              0x0800a281   Thumb Code     4  diskio.o(i.get_fattime)
    main                                     0x0800a3fd   Thumb Code   330  test.o(i.main)
    my_mem_free                              0x0800a665   Thumb Code    96  malloc.o(i.my_mem_free)
    my_mem_init                              0x0800a6d1   Thumb Code    54  malloc.o(i.my_mem_init)
    my_mem_malloc                            0x0800a715   Thumb Code   156  malloc.o(i.my_mem_malloc)
    my_mem_perused                           0x0800a7bd   Thumb Code    54  malloc.o(i.my_mem_perused)
    myfree                                   0x0800a7fd   Thumb Code    30  malloc.o(i.myfree)
    mymalloc                                 0x0800a821   Thumb Code    34  malloc.o(i.mymalloc)
    mymemset                                 0x0800a849   Thumb Code    20  malloc.o(i.mymemset)
    put_fat                                  0x0800a8d1   Thumb Code   310  ff.o(i.put_fat)
    read_addr                                0x0800aa07   Thumb Code     6  usmart.o(i.read_addr)
    uart_init                                0x0800abbd   Thumb Code   240  usart.o(i.uart_init)
    usmart_cmd_rec                           0x0800acbd   Thumb Code   170  usmart.o(i.usmart_cmd_rec)
    usmart_exe                               0x0800ad6d   Thumb Code   632  usmart.o(i.usmart_exe)
    usmart_get_aparm                         0x0800b041   Thumb Code   212  usmart_str.o(i.usmart_get_aparm)
    usmart_get_cmdname                       0x0800b115   Thumb Code    54  usmart_str.o(i.usmart_get_cmdname)
    usmart_get_fname                         0x0800b14d   Thumb Code   440  usmart_str.o(i.usmart_get_fname)
    usmart_get_fparam                        0x0800b30d   Thumb Code   262  usmart_str.o(i.usmart_get_fparam)
    usmart_get_parmpos                       0x0800b419   Thumb Code    26  usmart_str.o(i.usmart_get_parmpos)
    usmart_get_runtime                       0x0800b439   Thumb Code    56  usmart.o(i.usmart_get_runtime)
    usmart_init                              0x0800b479   Thumb Code    36  usmart.o(i.usmart_init)
    usmart_pow                               0x0800b4a1   Thumb Code    22  usmart_str.o(i.usmart_pow)
    usmart_reset_runtime                     0x0800b4b9   Thumb Code    38  usmart.o(i.usmart_reset_runtime)
    usmart_scan                              0x0800b4e9   Thumb Code   120  usmart.o(i.usmart_scan)
    usmart_search_nextc                      0x0800b5a5   Thumb Code    22  usmart_str.o(i.usmart_search_nextc)
    usmart_str2num                           0x0800b5bb   Thumb Code   262  usmart_str.o(i.usmart_str2num)
    usmart_strcmp                            0x0800b6c1   Thumb Code    34  usmart_str.o(i.usmart_strcmp)
    usmart_strcopy                           0x0800b6e3   Thumb Code    22  usmart_str.o(i.usmart_strcopy)
    usmart_strlen                            0x0800b6f9   Thumb Code    24  usmart_str.o(i.usmart_strlen)
    usmart_sys_cmd_exe                       0x0800b711   Thumb Code  1570  usmart.o(i.usmart_sys_cmd_exe)
    wav_buffill                              0x0800be3d   Thumb Code   156  wavplay.o(i.wav_buffill)
    wav_decode_init                          0x0800bedd   Thumb Code   314  wavplay.o(i.wav_decode_init)
    wav_get_curtime                          0x0800c0d9   Thumb Code    74  wavplay.o(i.wav_get_curtime)
    wav_i2s_dma_tx_callback                  0x0800c125   Thumb Code    96  wavplay.o(i.wav_i2s_dma_tx_callback)
    wav_play_song                            0x0800c195   Thumb Code   558  wavplay.o(i.wav_play_song)
    write_addr                               0x0800c3e1   Thumb Code     4  usmart.o(i.write_addr)
    __aeabi_d2uiz                            0x0800c3e5   Thumb Code     0  dfixu.o(x$fpl$dfixu)
    _dfixu                                   0x0800c3e5   Thumb Code    90  dfixu.o(x$fpl$dfixu)
    __aeabi_ui2d                             0x0800c43f   Thumb Code     0  dflt_clz.o(x$fpl$dfltu)
    _dfltu                                   0x0800c43f   Thumb Code    38  dflt_clz.o(x$fpl$dfltu)
    __aeabi_dmul                             0x0800c465   Thumb Code     0  dmul.o(x$fpl$dmul)
    _dmul                                    0x0800c465   Thumb Code   332  dmul.o(x$fpl$dmul)
    __fpl_dnaninf                            0x0800c5b9   Thumb Code   156  dnaninf.o(x$fpl$dnaninf)
    __fpl_dretinf                            0x0800c655   Thumb Code    12  dretinf.o(x$fpl$dretinf)
    _fp_init                                 0x0800c661   Thumb Code    10  fpinit.o(x$fpl$fpinit)
    __fplib_config_fpu_vfp                   0x0800c669   Thumb Code     0  fpinit.o(x$fpl$fpinit)
    __fplib_config_pureend_doubles           0x0800c669   Thumb Code     0  fpinit.o(x$fpl$fpinit)
    __I$use$fp                               0x0800c66a   Number         0  usenofp.o(x$fpl$usenofp)
    asc2_1206                                0x0800c66a   Data        1140  ili93xx.o(.constdata)
    asc2_1608                                0x0800cade   Data        1520  ili93xx.o(.constdata)
    asc2_2412                                0x0800d0ce   Data        3420  ili93xx.o(.constdata)
    I2S_PSC_TBL                              0x0800de2a   Data         110  i2s.o(.constdata)
    memtblsize                               0x0800de98   Data          12  malloc.o(.constdata)
    memblksize                               0x0800dea4   Data          12  malloc.o(.constdata)
    memsize                                  0x0800deb0   Data          12  malloc.o(.constdata)
    FILE_TYPE_TBL                            0x0800def8   Data         112  exfuns.o(.constdata)
    Region$$Table$$Base                      0x0800e5a0   Number         0  anon$$obj.o(Region$$Table)
    Region$$Table$$Limit                     0x0800e5c0   Number         0  anon$$obj.o(Region$$Table)
    mem3base                                 0x10000000   Data       61440  malloc.o(.ARM.__AT_0x10000000)
    mem3mapbase                              0x1000f000   Data        3840  malloc.o(.ARM.__AT_0x1000F000)
    __stdout                                 0x20000004   Data           4  usart.o(.data)
    USART_RX_STA                             0x20000008   Data           2  usart.o(.data)
    POINT_COLOR                              0x2000000a   Data           2  ili93xx.o(.data)
    BACK_COLOR                               0x2000000c   Data           2  ili93xx.o(.data)
    TransferError                            0x2000001a   Data           1  sdio_sdcard.o(.data)
    TransferEnd                              0x2000001b   Data           1  sdio_sdcard.o(.data)
    tempbuff                                 0x2000001c   Data           4  sdio_sdcard.o(.data)
    W25QXX_TYPE                              0x20000020   Data           2  w25qxx.o(.data)
    i2s_tx_callback                          0x20000024   Data           4  i2s.o(.data)
    mallco_dev                               0x2000009c   Data          36  malloc.o(.data)
    FLASH_SECTOR_COUNT                       0x200000c2   Data           2  diskio.o(.data)
    file                                     0x200000c4   Data           4  exfuns.o(.data)
    ftemp                                    0x200000c8   Data           4  exfuns.o(.data)
    br                                       0x200000cc   Data           4  exfuns.o(.data)
    bw                                       0x200000d0   Data           4  exfuns.o(.data)
    fatbuf                                   0x200000d4   Data           4  exfuns.o(.data)
    sys_cmd_tab                              0x200000d8   Data          28  usmart.o(.data)
    usmart_nametab                           0x200000f4   Data         104  usmart_config.o(.data)
    usmart_dev                               0x2000015c   Data         244  usmart_config.o(.data)
    wavtransferend                           0x20000250   Data           1  wavplay.o(.data)
    wavwitchbuf                              0x20000251   Data           1  wavplay.o(.data)
    USART_RX_BUF                             0x20000254   Data         200  usart.o(.bss)
    lcddev                                   0x2000031c   Data          14  ili93xx.o(.bss)
    SDCardInfo                               0x20000350   Data          88  sdio_sdcard.o(.bss)
    SDIO_DATA_BUFFER                         0x200003a8   Data         512  sdio_sdcard.o(.bss)
    W25QXX_BUFFER                            0x200005a8   Data        4096  w25qxx.o(.bss)
    mem1base                                 0x200015c0   Data       112640  malloc.o(.bss)
    mem1mapbase                              0x2001cdc0   Data        7040  malloc.o(.bss)
    fs                                       0x2001e94c   Data          12  exfuns.o(.bss)
    fileinfo                                 0x2001e958   Data          32  exfuns.o(.bss)
    dir                                      0x2001e978   Data          36  exfuns.o(.bss)
    ftinfo                                   0x2001e99c   Data          33  fontupd.o(.bss)
    wavctrl                                  0x2001e9bd   Data          32  wavplay.o(.bss)
    audiodev                                 0x2001e9dd   Data          17  audioplay.o(.bss)
    __libspace_start                         0x2001e9f0   Data          96  libspace.o(.bss)
    __temporary_stack_top$libspace           0x2001ea50   Data           0  libspace.o(.bss)
    mem2base                                 0x68000000   Data       983040  malloc.o(.ARM.__AT_0x68000000)
    mem2mapbase                              0x680f0000   Data       61440  malloc.o(.ARM.__AT_0x680F0000)



==============================================================================

Memory Map of the image

  Image Entry point : 0x08000189

  Load Region LR_IROM1 (Base: 0x08000000, Size: 0x0000e814, Max: 0x00100000, ABSOLUTE, COMPRESSED[0x0000e6a4])

    Execution Region ER_IROM1 (Base: 0x08000000, Size: 0x0000e5c0, Max: 0x00100000, ABSOLUTE)

    Base Addr    Size         Type   Attr      Idx    E Section Name        Object

    0x08000000   0x00000188   Data   RO            3    RESET               startup_stm32f40_41xxx.o
    0x08000188   0x00000008   Code   RO         2394  * !!!main             c_w.l(__main.o)
    0x08000190   0x00000034   Code   RO         2596    !!!scatter          c_w.l(__scatter.o)
    0x080001c4   0x0000005a   Code   RO         2594    !!dczerorl2         c_w.l(__dczerorl2.o)
    0x0800021e   0x00000002   PAD
    0x08000220   0x0000001c   Code   RO         2598    !!handler_zi        c_w.l(__scatter_zi.o)
    0x0800023c   0x00000000   Code   RO         2381    .ARM.Collect$$_printf_percent$$00000000  c_w.l(_printf_percent.o)
    0x0800023c   0x00000006   Code   RO         2379    .ARM.Collect$$_printf_percent$$00000009  c_w.l(_printf_d.o)
    0x08000242   0x00000006   Code   RO         2380    .ARM.Collect$$_printf_percent$$0000000A  c_w.l(_printf_u.o)
    0x08000248   0x00000006   Code   RO         2378    .ARM.Collect$$_printf_percent$$0000000C  c_w.l(_printf_x.o)
    0x0800024e   0x00000006   Code   RO         2376    .ARM.Collect$$_printf_percent$$00000013  c_w.l(_printf_c.o)
    0x08000254   0x00000006   Code   RO         2377    .ARM.Collect$$_printf_percent$$00000014  c_w.l(_printf_s.o)
    0x0800025a   0x00000004   Code   RO         2419    .ARM.Collect$$_printf_percent$$00000017  c_w.l(_printf_percent_end.o)
    0x0800025e   0x00000002   Code   RO         2465    .ARM.Collect$$libinit$$00000000  c_w.l(libinit.o)
    0x08000260   0x00000004   Code   RO         2475    .ARM.Collect$$libinit$$00000001  c_w.l(libinit2.o)
    0x08000264   0x00000000   Code   RO         2478    .ARM.Collect$$libinit$$00000004  c_w.l(libinit2.o)
    0x08000264   0x00000000   Code   RO         2481    .ARM.Collect$$libinit$$0000000A  c_w.l(libinit2.o)
    0x08000264   0x00000000   Code   RO         2483    .ARM.Collect$$libinit$$0000000C  c_w.l(libinit2.o)
    0x08000264   0x00000000   Code   RO         2485    .ARM.Collect$$libinit$$0000000E  c_w.l(libinit2.o)
    0x08000264   0x00000000   Code   RO         2488    .ARM.Collect$$libinit$$00000011  c_w.l(libinit2.o)
    0x08000264   0x00000000   Code   RO         2490    .ARM.Collect$$libinit$$00000013  c_w.l(libinit2.o)
    0x08000264   0x00000000   Code   RO         2492    .ARM.Collect$$libinit$$00000015  c_w.l(libinit2.o)
    0x08000264   0x00000000   Code   RO         2494    .ARM.Collect$$libinit$$00000017  c_w.l(libinit2.o)
    0x08000264   0x00000000   Code   RO         2496    .ARM.Collect$$libinit$$00000019  c_w.l(libinit2.o)
    0x08000264   0x00000000   Code   RO         2498    .ARM.Collect$$libinit$$0000001B  c_w.l(libinit2.o)
    0x08000264   0x00000000   Code   RO         2500    .ARM.Collect$$libinit$$0000001D  c_w.l(libinit2.o)
    0x08000264   0x00000000   Code   RO         2502    .ARM.Collect$$libinit$$0000001F  c_w.l(libinit2.o)
    0x08000264   0x00000000   Code   RO         2504    .ARM.Collect$$libinit$$00000021  c_w.l(libinit2.o)
    0x08000264   0x00000000   Code   RO         2506    .ARM.Collect$$libinit$$00000023  c_w.l(libinit2.o)
    0x08000264   0x00000000   Code   RO         2508    .ARM.Collect$$libinit$$00000025  c_w.l(libinit2.o)
    0x08000264   0x00000000   Code   RO         2512    .ARM.Collect$$libinit$$0000002C  c_w.l(libinit2.o)
    0x08000264   0x00000000   Code   RO         2514    .ARM.Collect$$libinit$$0000002E  c_w.l(libinit2.o)
    0x08000264   0x00000000   Code   RO         2516    .ARM.Collect$$libinit$$00000030  c_w.l(libinit2.o)
    0x08000264   0x00000000   Code   RO         2518    .ARM.Collect$$libinit$$00000032  c_w.l(libinit2.o)
    0x08000264   0x00000002   Code   RO         2519    .ARM.Collect$$libinit$$00000033  c_w.l(libinit2.o)
    0x08000266   0x00000002   Code   RO         2547    .ARM.Collect$$libshutdown$$00000000  c_w.l(libshutdown.o)
    0x08000268   0x00000000   Code   RO         2562    .ARM.Collect$$libshutdown$$00000003  c_w.l(libshutdown2.o)
    0x08000268   0x00000000   Code   RO         2565    .ARM.Collect$$libshutdown$$00000006  c_w.l(libshutdown2.o)
    0x08000268   0x00000000   Code   RO         2568    .ARM.Collect$$libshutdown$$00000009  c_w.l(libshutdown2.o)
    0x08000268   0x00000000   Code   RO         2570    .ARM.Collect$$libshutdown$$0000000B  c_w.l(libshutdown2.o)
    0x08000268   0x00000000   Code   RO         2573    .ARM.Collect$$libshutdown$$0000000E  c_w.l(libshutdown2.o)
    0x08000268   0x00000002   Code   RO         2574    .ARM.Collect$$libshutdown$$0000000F  c_w.l(libshutdown2.o)
    0x0800026a   0x00000000   Code   RO         2410    .ARM.Collect$$rtentry$$00000000  c_w.l(__rtentry.o)
    0x0800026a   0x00000000   Code   RO         2428    .ARM.Collect$$rtentry$$00000002  c_w.l(__rtentry2.o)
    0x0800026a   0x00000006   Code   RO         2440    .ARM.Collect$$rtentry$$00000004  c_w.l(__rtentry4.o)
    0x08000270   0x00000000   Code   RO         2430    .ARM.Collect$$rtentry$$00000009  c_w.l(__rtentry2.o)
    0x08000270   0x00000004   Code   RO         2431    .ARM.Collect$$rtentry$$0000000A  c_w.l(__rtentry2.o)
    0x08000274   0x00000000   Code   RO         2433    .ARM.Collect$$rtentry$$0000000C  c_w.l(__rtentry2.o)
    0x08000274   0x00000008   Code   RO         2434    .ARM.Collect$$rtentry$$0000000D  c_w.l(__rtentry2.o)
    0x0800027c   0x00000002   Code   RO         2469    .ARM.Collect$$rtexit$$00000000  c_w.l(rtexit.o)
    0x0800027e   0x00000000   Code   RO         2521    .ARM.Collect$$rtexit$$00000002  c_w.l(rtexit2.o)
    0x0800027e   0x00000004   Code   RO         2522    .ARM.Collect$$rtexit$$00000003  c_w.l(rtexit2.o)
    0x08000282   0x00000006   Code   RO         2523    .ARM.Collect$$rtexit$$00000004  c_w.l(rtexit2.o)
    0x08000288   0x00000044   Code   RO            4    .text               startup_stm32f40_41xxx.o
    0x080002cc   0x00000002   Code   RO         2319    .text               c_w.l(use_no_semi_2.o)
    0x080002ce   0x00000048   Code   RO         2321    .text               c_w.l(llsdiv.o)
    0x08000316   0x00000002   PAD
    0x08000318   0x00000018   Code   RO         2325    .text               c_w.l(noretval__2printf.o)
    0x08000330   0x0000004e   Code   RO         2329    .text               c_w.l(_printf_pad.o)
    0x0800037e   0x00000052   Code   RO         2331    .text               c_w.l(_printf_str.o)
    0x080003d0   0x00000078   Code   RO         2333    .text               c_w.l(_printf_dec.o)
    0x08000448   0x00000058   Code   RO         2338    .text               c_w.l(_printf_hex_int.o)
    0x080004a0   0x00000188   Code   RO         2373    .text               c_w.l(__printf_flags_ss_wp.o)
    0x08000628   0x00000048   Code   RO         2382    .text               c_w.l(strcpy.o)
    0x08000670   0x00000018   Code   RO         2386    .text               c_w.l(strcat.o)
    0x08000688   0x0000008a   Code   RO         2388    .text               c_w.l(rt_memcpy_v6.o)
    0x08000712   0x00000002   PAD
    0x08000714   0x00000080   Code   RO         2390    .text               c_w.l(strcmpv7m.o)
    0x08000794   0x00000006   Code   RO         2392    .text               c_w.l(heapauxi.o)
    0x0800079a   0x00000002   Code   RO         2408    .text               c_w.l(use_no_semi.o)
    0x0800079c   0x000000ee   Code   RO         2411    .text               c_w.l(lludivv7m.o)
    0x0800088a   0x000000b2   Code   RO         2413    .text               c_w.l(_printf_intcommon.o)
    0x0800093c   0x0000002c   Code   RO         2415    .text               c_w.l(_printf_char.o)
    0x08000968   0x00000024   Code   RO         2417    .text               c_w.l(_printf_char_file.o)
    0x0800098c   0x00000064   Code   RO         2420    .text               c_w.l(rt_memcpy_w.o)
    0x080009f0   0x00000030   Code   RO         2446    .text               c_w.l(_printf_char_common.o)
    0x08000a20   0x00000008   Code   RO         2448    .text               c_w.l(ferror.o)
    0x08000a28   0x0000004a   Code   RO         2452    .text               c_w.l(sys_stackheap_outer.o)
    0x08000a72   0x0000000c   Code   RO         2458    .text               c_w.l(exit.o)
    0x08000a7e   0x00000002   PAD
    0x08000a80   0x00000008   Code   RO         2466    .text               c_w.l(libspace.o)
    0x08000a88   0x00000038   Code   RO          582    i.CmdError          sdio_sdcard.o
    0x08000ac0   0x00000060   Code   RO          583    i.CmdResp1Error     sdio_sdcard.o
    0x08000b20   0x00000068   Code   RO          584    i.CmdResp2Error     sdio_sdcard.o
    0x08000b88   0x00000040   Code   RO          585    i.CmdResp3Error     sdio_sdcard.o
    0x08000bc8   0x000000a0   Code   RO          586    i.CmdResp6Error     sdio_sdcard.o
    0x08000c68   0x0000005c   Code   RO          587    i.CmdResp7Error     sdio_sdcard.o
    0x08000cc4   0x00000028   Code   RO         1013    i.DMA1_Stream4_IRQHandler  i2s.o
    0x08000cec   0x0000015c   Code   RO          588    i.FindSCR           sdio_sdcard.o
    0x08000e48   0x00000040   Code   RO          174    i.GPIO_AF_Set       sys.o
    0x08000e88   0x000000de   Code   RO          175    i.GPIO_Set          sys.o
    0x08000f66   0x00000002   PAD
    0x08000f68   0x000000e0   Code   RO         1973    i.Get_HzMat         text.o
    0x08001048   0x000000ac   Code   RO         1014    i.I2S2_Init         i2s.o
    0x080010f4   0x000000b0   Code   RO         1015    i.I2S2_SampleRate_Set  i2s.o
    0x080011a4   0x000000e8   Code   RO         1016    i.I2S2_TX_DMA_Init  i2s.o
    0x0800128c   0x00000014   Code   RO         1017    i.I2S_Play_Start    i2s.o
    0x080012a0   0x00000014   Code   RO         1018    i.I2S_Play_Stop     i2s.o
    0x080012b4   0x00000044   Code   RO          949    i.IIC_Init          myiic.o
    0x080012f8   0x00000068   Code   RO          952    i.IIC_Send_Byte     myiic.o
    0x08001360   0x0000004c   Code   RO          953    i.IIC_Start         myiic.o
    0x080013ac   0x0000004c   Code   RO          954    i.IIC_Stop          myiic.o
    0x080013f8   0x00000060   Code   RO          955    i.IIC_Wait_Ack      myiic.o
    0x08001458   0x00000004   Code   RO          176    i.INTX_DISABLE      sys.o
    0x0800145c   0x00000004   Code   RO          177    i.INTX_ENABLE       sys.o
    0x08001460   0x0000009c   Code   RO          589    i.IsCardProgramming  sdio_sdcard.o
    0x080014fc   0x00000050   Code   RO          555    i.KEY_Init          key.o
    0x0800154c   0x000000a4   Code   RO          556    i.KEY_Scan          key.o
    0x080015f0   0x0000006c   Code   RO          338    i.LCD_Clear         ili93xx.o
    0x0800165c   0x000001c0   Code   RO          342    i.LCD_Display_Dir   ili93xx.o
    0x0800181c   0x00000180   Code   RO          347    i.LCD_Fast_DrawPoint  ili93xx.o
    0x0800199c   0x000000b8   Code   RO          348    i.LCD_Fill          ili93xx.o
    0x08001a54   0x00003934   Code   RO          349    i.LCD_Init          ili93xx.o
    0x08005388   0x00000016   Code   RO          350    i.LCD_Pow           ili93xx.o
    0x0800539e   0x00000002   PAD
    0x080053a0   0x00000014   Code   RO          351    i.LCD_RD_DATA       ili93xx.o
    0x080053b4   0x00000016   Code   RO          353    i.LCD_ReadReg       ili93xx.o
    0x080053ca   0x00000002   PAD
    0x080053cc   0x00000060   Code   RO          354    i.LCD_SSD_BackLightSet  ili93xx.o
    0x0800542c   0x000002ec   Code   RO          355    i.LCD_Scan_Dir      ili93xx.o
    0x08005718   0x000001a8   Code   RO          356    i.LCD_SetCursor     ili93xx.o
    0x080058c0   0x00000128   Code   RO          358    i.LCD_ShowChar      ili93xx.o
    0x080059e8   0x00000066   Code   RO          360    i.LCD_ShowString    ili93xx.o
    0x08005a4e   0x000000be   Code   RO          361    i.LCD_ShowxNum      ili93xx.o
    0x08005b0c   0x00000018   Code   RO          362    i.LCD_WR_DATA       ili93xx.o
    0x08005b24   0x00000018   Code   RO          363    i.LCD_WR_REG        ili93xx.o
    0x08005b3c   0x00000014   Code   RO          365    i.LCD_WriteRAM_Prepare  ili93xx.o
    0x08005b50   0x00000014   Code   RO          366    i.LCD_WriteReg      ili93xx.o
    0x08005b64   0x00000040   Code   RO          317    i.LED_Init          led.o
    0x08005ba4   0x00000078   Code   RO          178    i.MY_NVIC_Init      sys.o
    0x08005c1c   0x00000028   Code   RO          179    i.MY_NVIC_PriorityGroupConfig  sys.o
    0x08005c44   0x00000010   Code   RO          180    i.MY_NVIC_SetVectorTable  sys.o
    0x08005c54   0x00000080   Code   RO          590    i.SDEnWideBus       sdio_sdcard.o
    0x08005cd4   0x00000014   Code   RO          591    i.SDIO_Clock_Set    sdio_sdcard.o
    0x08005ce8   0x00000008   Code   RO          592    i.SDIO_IRQHandler   sdio_sdcard.o
    0x08005cf0   0x0000002c   Code   RO          593    i.SDIO_Send_Cmd     sdio_sdcard.o
    0x08005d1c   0x00000038   Code   RO          594    i.SDIO_Send_Data_Cfg  sdio_sdcard.o
    0x08005d54   0x00000094   Code   RO          595    i.SD_DMA_Config     sdio_sdcard.o
    0x08005de8   0x00000068   Code   RO          596    i.SD_EnableWideBusOperation  sdio_sdcard.o
    0x08005e50   0x00000314   Code   RO          597    i.SD_GetCardInfo    sdio_sdcard.o
    0x08006164   0x00000178   Code   RO          599    i.SD_Init           sdio_sdcard.o
    0x080062dc   0x00000114   Code   RO          600    i.SD_InitializeCards  sdio_sdcard.o
    0x080063f0   0x00000180   Code   RO          602    i.SD_PowerON        sdio_sdcard.o
    0x08006570   0x0000016c   Code   RO          603    i.SD_ProcessIRQSrc  sdio_sdcard.o
    0x080066dc   0x0000024c   Code   RO          604    i.SD_ReadBlock      sdio_sdcard.o
    0x08006928   0x000000a0   Code   RO          605    i.SD_ReadDisk       sdio_sdcard.o
    0x080069c8   0x000002c4   Code   RO          606    i.SD_ReadMultiBlocks  sdio_sdcard.o
    0x08006c8c   0x00000016   Code   RO          607    i.SD_SelectDeselect  sdio_sdcard.o
    0x08006ca2   0x00000002   PAD
    0x08006ca4   0x00000018   Code   RO          609    i.SD_SetDeviceMode  sdio_sdcard.o
    0x08006cbc   0x00000344   Code   RO          610    i.SD_WriteBlock     sdio_sdcard.o
    0x08007000   0x000000a0   Code   RO          611    i.SD_WriteDisk      sdio_sdcard.o
    0x080070a0   0x0000037c   Code   RO          612    i.SD_WriteMultiBlocks  sdio_sdcard.o
    0x0800741c   0x000000b0   Code   RO          802    i.SPI1_Init         spi.o
    0x080074cc   0x00000030   Code   RO          803    i.SPI1_ReadWriteByte  spi.o
    0x080074fc   0x0000002c   Code   RO          804    i.SPI1_SetSpeed     spi.o
    0x08007528   0x000000c8   Code   RO         1974    i.Show_Font         text.o
    0x080075f0   0x000000c2   Code   RO         1975    i.Show_Str          text.o
    0x080076b2   0x00000002   PAD
    0x080076b4   0x00000068   Code   RO          181    i.Stm32_Clock_Init  sys.o
    0x0800771c   0x0000010c   Code   RO          182    i.Sys_Clock_Set     sys.o
    0x08007828   0x0000003c   Code   RO         2011    i.TIM4_IRQHandler   usmart.o
    0x08007864   0x00000050   Code   RO         2012    i.Timer4_Init       usmart.o
    0x080078b4   0x00000080   Code   RO          268    i.USART1_IRQHandler  usart.o
    0x08007934   0x00000058   Code   RO          838    i.W25QXX_Erase_Sector  w25qxx.o
    0x0800798c   0x00000080   Code   RO          839    i.W25QXX_Init       w25qxx.o
    0x08007a0c   0x00000050   Code   RO          841    i.W25QXX_Read       w25qxx.o
    0x08007a5c   0x00000048   Code   RO          842    i.W25QXX_ReadID     w25qxx.o
    0x08007aa4   0x0000002c   Code   RO          843    i.W25QXX_ReadSR     w25qxx.o
    0x08007ad0   0x00000012   Code   RO          845    i.W25QXX_Wait_Busy  w25qxx.o
    0x08007ae2   0x00000002   PAD
    0x08007ae4   0x000000b8   Code   RO          846    i.W25QXX_Write      w25qxx.o
    0x08007b9c   0x00000020   Code   RO          848    i.W25QXX_Write_Enable  w25qxx.o
    0x08007bbc   0x00000046   Code   RO          849    i.W25QXX_Write_NoCheck  w25qxx.o
    0x08007c02   0x00000002   PAD
    0x08007c04   0x00000054   Code   RO          850    i.W25QXX_Write_Page  w25qxx.o
    0x08007c58   0x00000012   Code   RO         1070    i.WM8978_3D_Set     wm8978.o
    0x08007c6a   0x00000040   Code   RO         1071    i.WM8978_ADDA_Cfg   wm8978.o
    0x08007caa   0x00000036   Code   RO         1072    i.WM8978_AUX_Gain   wm8978.o
    0x08007ce0   0x00000032   Code   RO         1073    i.WM8978_EQ1_Set    wm8978.o
    0x08007d12   0x00000028   Code   RO         1074    i.WM8978_EQ2_Set    wm8978.o
    0x08007d3a   0x00000028   Code   RO         1075    i.WM8978_EQ3_Set    wm8978.o
    0x08007d62   0x00000028   Code   RO         1076    i.WM8978_EQ4_Set    wm8978.o
    0x08007d8a   0x00000028   Code   RO         1077    i.WM8978_EQ5_Set    wm8978.o
    0x08007db2   0x00000022   Code   RO         1078    i.WM8978_EQ_3D_Dir  wm8978.o
    0x08007dd4   0x0000002e   Code   RO         1079    i.WM8978_HPvol_Set  wm8978.o
    0x08007e02   0x0000001c   Code   RO         1080    i.WM8978_I2S_Cfg    wm8978.o
    0x08007e1e   0x00000002   PAD
    0x08007e20   0x000000ec   Code   RO         1081    i.WM8978_Init       wm8978.o
    0x08007f0c   0x00000066   Code   RO         1082    i.WM8978_Input_Cfg  wm8978.o
    0x08007f72   0x00000036   Code   RO         1083    i.WM8978_LINEIN_Gain  wm8978.o
    0x08007fa8   0x0000002a   Code   RO         1085    i.WM8978_Output_Cfg  wm8978.o
    0x08007fd2   0x00000002   PAD
    0x08007fd4   0x00000010   Code   RO         1086    i.WM8978_Read_Reg   wm8978.o
    0x08007fe4   0x00000022   Code   RO         1087    i.WM8978_SPKvol_Set  wm8978.o
    0x08008006   0x00000002   PAD
    0x08008008   0x00000054   Code   RO         1088    i.WM8978_Write_Reg  wm8978.o
    0x0800805c   0x0000000e   Code   RO         2366    i._is_digit         c_w.l(__printf_wp.o)
    0x0800806a   0x00000006   Code   RO          269    i._sys_exit         usart.o
    0x08008070   0x00000074   Code   RO         2252    i.audio_get_tnum    audioplay.o
    0x080080e4   0x00000040   Code   RO         2253    i.audio_index_show  audioplay.o
    0x08008124   0x00000100   Code   RO         2254    i.audio_msg_show    audioplay.o
    0x08008224   0x00000294   Code   RO         2255    i.audio_play        audioplay.o
    0x080084b8   0x0000003c   Code   RO         2256    i.audio_play_song   audioplay.o
    0x080084f4   0x00000014   Code   RO         2257    i.audio_start       audioplay.o
    0x08008508   0x00000014   Code   RO         2258    i.audio_stop        audioplay.o
    0x0800851c   0x0000001a   Code   RO         1693    i.char_upper        exfuns.o
    0x08008536   0x00000002   PAD
    0x08008538   0x00000090   Code   RO         1278    i.check_fs          ff.o
    0x080085c8   0x00000014   Code   RO         1279    i.chk_chr           ff.o
    0x080085dc   0x00000032   Code   RO         1280    i.clmt_clust        ff.o
    0x0800860e   0x0000001a   Code   RO         1281    i.clust2sect        ff.o
    0x08008628   0x00000090   Code   RO         1282    i.cmp_lfn           ff.o
    0x080086b8   0x00000012   Code   RO          613    i.convert_from_bytes_to_power_of_two  sdio_sdcard.o
    0x080086ca   0x000000d6   Code   RO         1283    i.create_chain      ff.o
    0x080087a0   0x00000270   Code   RO         1284    i.create_name       ff.o
    0x08008a10   0x00000040   Code   RO          132    i.delay_init        delay.o
    0x08008a50   0x00000038   Code   RO          133    i.delay_ms          delay.o
    0x08008a88   0x0000003c   Code   RO          134    i.delay_us          delay.o
    0x08008ac4   0x0000003c   Code   RO          135    i.delay_xms         delay.o
    0x08008b00   0x0000005c   Code   RO         1285    i.dir_alloc         ff.o
    0x08008b5c   0x000000ea   Code   RO         1286    i.dir_find          ff.o
    0x08008c46   0x00000110   Code   RO         1287    i.dir_next          ff.o
    0x08008d56   0x000000c4   Code   RO         1288    i.dir_read          ff.o
    0x08008e1a   0x0000012a   Code   RO         1289    i.dir_register      ff.o
    0x08008f44   0x0000009e   Code   RO         1291    i.dir_sdi           ff.o
    0x08008fe2   0x00000002   PAD
    0x08008fe4   0x00000038   Code   RO         1628    i.disk_initialize   diskio.o
    0x0800901c   0x000000b4   Code   RO         1629    i.disk_ioctl        diskio.o
    0x080090d0   0x0000007a   Code   RO         1630    i.disk_read         diskio.o
    0x0800914a   0x00000006   Code   RO         1631    i.disk_status       diskio.o
    0x08009150   0x0000007a   Code   RO         1632    i.disk_write        diskio.o
    0x080091ca   0x00000002   PAD
    0x080091cc   0x00000084   Code   RO         1695    i.exfuns_init       exfuns.o
    0x08009250   0x00000024   Code   RO         1293    i.f_close           ff.o
    0x08009274   0x0000028e   Code   RO         1298    i.f_lseek           ff.o
    0x08009502   0x00000002   PAD
    0x08009504   0x0000005c   Code   RO         1301    i.f_mount           ff.o
    0x08009560   0x00000180   Code   RO         1302    i.f_open            ff.o
    0x080096e0   0x00000088   Code   RO         1303    i.f_opendir         ff.o
    0x08009768   0x000001b0   Code   RO         1307    i.f_read            ff.o
    0x08009918   0x00000072   Code   RO         1308    i.f_readdir         ff.o
    0x0800998a   0x000000b0   Code   RO         1312    i.f_sync            ff.o
    0x08009a3a   0x00000002   PAD
    0x08009a3c   0x000000b0   Code   RO         1696    i.f_typetell        exfuns.o
    0x08009aec   0x00000098   Code   RO         1896    i.ff_convert        mycc936.o
    0x08009b84   0x0000000e   Code   RO         1633    i.ff_memalloc       diskio.o
    0x08009b92   0x0000000e   Code   RO         1634    i.ff_memfree        diskio.o
    0x08009ba0   0x00000038   Code   RO         1897    i.ff_wtoupper       mycc936.o
    0x08009bd8   0x00000388   Code   RO         1317    i.find_volume       ff.o
    0x08009f60   0x00000080   Code   RO         1318    i.fit_lfn           ff.o
    0x08009fe0   0x00000090   Code   RO         1319    i.follow_path       ff.o
    0x0800a070   0x00000044   Code   RO         1923    i.font_init         fontupd.o
    0x0800a0b4   0x0000001c   Code   RO          270    i.fputc             usart.o
    0x0800a0d0   0x000000c8   Code   RO         1320    i.gen_numname       ff.o
    0x0800a198   0x000000e8   Code   RO         1321    i.get_fat           ff.o
    0x0800a280   0x00000004   Code   RO         1635    i.get_fattime       diskio.o
    0x0800a284   0x0000010c   Code   RO         1322    i.get_fileinfo      ff.o
    0x0800a390   0x0000004a   Code   RO         1323    i.get_ldnumber      ff.o
    0x0800a3da   0x00000020   Code   RO         1324    i.ld_clust          ff.o
    0x0800a3fa   0x00000002   PAD
    0x0800a3fc   0x000001e0   Code   RO           12    i.main              test.o
    0x0800a5dc   0x00000026   Code   RO         1325    i.mem_cmp           ff.o
    0x0800a602   0x0000001a   Code   RO         1326    i.mem_cpy           ff.o
    0x0800a61c   0x00000014   Code   RO         1327    i.mem_set           ff.o
    0x0800a630   0x00000032   Code   RO         1328    i.move_window       ff.o
    0x0800a662   0x00000002   PAD
    0x0800a664   0x0000006c   Code   RO         1200    i.my_mem_free       malloc.o
    0x0800a6d0   0x00000044   Code   RO         1201    i.my_mem_init       malloc.o
    0x0800a714   0x000000a8   Code   RO         1202    i.my_mem_malloc     malloc.o
    0x0800a7bc   0x00000040   Code   RO         1203    i.my_mem_perused    malloc.o
    0x0800a7fc   0x00000024   Code   RO         1204    i.myfree            malloc.o
    0x0800a820   0x00000028   Code   RO         1205    i.mymalloc          malloc.o
    0x0800a848   0x00000014   Code   RO         1207    i.mymemset          malloc.o
    0x0800a85c   0x00000074   Code   RO         1329    i.pick_lfn          ff.o
    0x0800a8d0   0x00000136   Code   RO         1330    i.put_fat           ff.o
    0x0800aa06   0x00000006   Code   RO         2013    i.read_addr         usmart.o
    0x0800aa0c   0x0000006c   Code   RO         1332    i.remove_chain      ff.o
    0x0800aa78   0x00000010   Code   RO         1333    i.st_clust          ff.o
    0x0800aa88   0x00000020   Code   RO         1334    i.sum_sfn           ff.o
    0x0800aaa8   0x000000c8   Code   RO         1335    i.sync_fs           ff.o
    0x0800ab70   0x0000004c   Code   RO         1336    i.sync_window       ff.o
    0x0800abbc   0x00000100   Code   RO          271    i.uart_init         usart.o
    0x0800acbc   0x000000b0   Code   RO         2014    i.usmart_cmd_rec    usmart.o
    0x0800ad6c   0x000002d4   Code   RO         2015    i.usmart_exe        usmart.o
    0x0800b040   0x000000d4   Code   RO         2116    i.usmart_get_aparm  usmart_str.o
    0x0800b114   0x00000036   Code   RO         2117    i.usmart_get_cmdname  usmart_str.o
    0x0800b14a   0x00000002   PAD
    0x0800b14c   0x000001c0   Code   RO         2118    i.usmart_get_fname  usmart_str.o
    0x0800b30c   0x0000010c   Code   RO         2119    i.usmart_get_fparam  usmart_str.o
    0x0800b418   0x00000020   Code   RO         2120    i.usmart_get_parmpos  usmart_str.o
    0x0800b438   0x00000040   Code   RO         2016    i.usmart_get_runtime  usmart.o
    0x0800b478   0x00000028   Code   RO         2017    i.usmart_init       usmart.o
    0x0800b4a0   0x00000016   Code   RO         2121    i.usmart_pow        usmart_str.o
    0x0800b4b6   0x00000002   PAD
    0x0800b4b8   0x00000030   Code   RO         2018    i.usmart_reset_runtime  usmart.o
    0x0800b4e8   0x000000bc   Code   RO         2019    i.usmart_scan       usmart.o
    0x0800b5a4   0x00000016   Code   RO         2122    i.usmart_search_nextc  usmart_str.o
    0x0800b5ba   0x00000106   Code   RO         2123    i.usmart_str2num    usmart_str.o
    0x0800b6c0   0x00000022   Code   RO         2124    i.usmart_strcmp     usmart_str.o
    0x0800b6e2   0x00000016   Code   RO         2125    i.usmart_strcopy    usmart_str.o
    0x0800b6f8   0x00000018   Code   RO         2126    i.usmart_strlen     usmart_str.o
    0x0800b710   0x000006f4   Code   RO         2020    i.usmart_sys_cmd_exe  usmart.o
    0x0800be04   0x00000036   Code   RO         1337    i.validate          ff.o
    0x0800be3a   0x00000002   PAD
    0x0800be3c   0x000000a0   Code   RO         2196    i.wav_buffill       wavplay.o
    0x0800bedc   0x000001fc   Code   RO         2197    i.wav_decode_init   wavplay.o
    0x0800c0d8   0x0000004a   Code   RO         2198    i.wav_get_curtime   wavplay.o
    0x0800c122   0x00000002   PAD
    0x0800c124   0x00000070   Code   RO         2199    i.wav_i2s_dma_tx_callback  wavplay.o
    0x0800c194   0x0000024c   Code   RO         2200    i.wav_play_song     wavplay.o
    0x0800c3e0   0x00000004   Code   RO         2021    i.write_addr        usmart.o
    0x0800c3e4   0x0000005a   Code   RO         2396    x$fpl$dfixu         fz_wm.l(dfixu.o)
    0x0800c43e   0x00000026   Code   RO         2400    x$fpl$dfltu         fz_wm.l(dflt_clz.o)
    0x0800c464   0x00000154   Code   RO         2406    x$fpl$dmul          fz_wm.l(dmul.o)
    0x0800c5b8   0x0000009c   Code   RO         2422    x$fpl$dnaninf       fz_wm.l(dnaninf.o)
    0x0800c654   0x0000000c   Code   RO         2424    x$fpl$dretinf       fz_wm.l(dretinf.o)
    0x0800c660   0x0000000a   Code   RO         2535    x$fpl$fpinit        fz_wm.l(fpinit.o)
    0x0800c66a   0x00000000   Code   RO         2426    x$fpl$usenofp       fz_wm.l(usenofp.o)
    0x0800c66a   0x000017c0   Data   RO          369    .constdata          ili93xx.o
    0x0800de2a   0x0000006e   Data   RO         1019    .constdata          i2s.o
    0x0800de98   0x00000024   Data   RO         1214    .constdata          malloc.o
    0x0800debc   0x0000003a   Data   RO         1339    .constdata          ff.o
    0x0800def6   0x00000002   PAD
    0x0800def8   0x00000070   Data   RO         1698    .constdata          exfuns.o
    0x0800df68   0x000003c0   Data   RO         1898    .constdata          mycc936.o
    0x0800e328   0x00000028   Data   RO         2339    .constdata          c_w.l(_printf_hex_int.o)
    0x0800e350   0x00000011   Data   RO         2374    .constdata          c_w.l(__printf_flags_ss_wp.o)
    0x0800e361   0x00000003   PAD
    0x0800e364   0x00000044   Data   RO         1699    .conststring        exfuns.o
    0x0800e3a8   0x00000028   Data   RO         2022    .conststring        usmart.o
    0x0800e3d0   0x000001d0   Data   RO         2095    .conststring        usmart_config.o
    0x0800e5a0   0x00000020   Data   RO         2592    Region$$Table       anon$$obj.o


    Execution Region RW_IRAM1 (Base: 0x20000000, Size: 0x0001ee50, Max: 0x00020000, ABSOLUTE, COMPRESSED[0x000000e4])

    Base Addr    Size         Type   Attr      Idx    E Section Name        Object

    0x20000000   0x00000004   Data   RW          136    .data               delay.o
    0x20000004   0x00000006   Data   RW          273    .data               usart.o
    0x2000000a   0x00000004   Data   RW          370    .data               ili93xx.o
    0x2000000e   0x00000001   Data   RW          557    .data               key.o
    0x2000000f   0x00000001   PAD
    0x20000010   0x00000010   Data   RW          615    .data               sdio_sdcard.o
    0x20000020   0x00000002   Data   RW          853    .data               w25qxx.o
    0x20000022   0x00000002   PAD
    0x20000024   0x00000004   Data   RW         1020    .data               i2s.o
    0x20000028   0x00000074   Data   RW         1089    .data               wm8978.o
    0x2000009c   0x00000024   Data   RW         1215    .data               malloc.o
    0x200000c0   0x00000002   Data   RW         1340    .data               ff.o
    0x200000c2   0x00000002   Data   RW         1636    .data               diskio.o
    0x200000c4   0x00000014   Data   RW         1700    .data               exfuns.o
    0x200000d8   0x0000001c   Data   RW         2023    .data               usmart.o
    0x200000f4   0x0000015c   Data   RW         2096    .data               usmart_config.o
    0x20000250   0x00000002   Data   RW         2202    .data               wavplay.o
    0x20000252   0x00000002   Data   RW         2260    .data               audioplay.o
    0x20000254   0x000000c8   Zero   RW          272    .bss                usart.o
    0x2000031c   0x0000000e   Zero   RW          368    .bss                ili93xx.o
    0x2000032a   0x00000006   PAD
    0x20000330   0x00000278   Zero   RW          614    .bss                sdio_sdcard.o
    0x200005a8   0x00001000   Zero   RW          852    .bss                w25qxx.o
    0x200015a8   0x00000018   PAD
    0x200015c0   0x0001d380   Zero   RW         1213    .bss                malloc.o
    0x2001e940   0x0000000c   Zero   RW         1338    .bss                ff.o
    0x2001e94c   0x00000050   Zero   RW         1697    .bss                exfuns.o
    0x2001e99c   0x00000021   Zero   RW         1927    .bss                fontupd.o
    0x2001e9bd   0x00000020   Zero   RW         2201    .bss                wavplay.o
    0x2001e9dd   0x00000011   Zero   RW         2259    .bss                audioplay.o
    0x2001e9ee   0x00000002   PAD
    0x2001e9f0   0x00000060   Zero   RW         2467    .bss                c_w.l(libspace.o)
    0x2001ea50   0x00000000   Zero   RW            2    HEAP                startup_stm32f40_41xxx.o
    0x2001ea50   0x00000400   Zero   RW            1    STACK               startup_stm32f40_41xxx.o



  Load Region LR$$.ARM.__AT_0x10000000 (Base: 0x10000000, Size: 0x00000000, Max: 0x0000f000, ABSOLUTE)

    Execution Region ER$$.ARM.__AT_0x10000000 (Base: 0x10000000, Size: 0x0000f000, Max: 0x0000f000, ABSOLUTE, UNINIT)

    Base Addr    Size         Type   Attr      Idx    E Section Name        Object

    0x10000000   0x0000f000   Zero   RW         1209    .ARM.__AT_0x10000000  malloc.o



  Load Region LR$$.ARM.__AT_0x1000F000 (Base: 0x1000f000, Size: 0x00000000, Max: 0x00000f00, ABSOLUTE)

    Execution Region ER$$.ARM.__AT_0x1000F000 (Base: 0x1000f000, Size: 0x00000f00, Max: 0x00000f00, ABSOLUTE, UNINIT)

    Base Addr    Size         Type   Attr      Idx    E Section Name        Object

    0x1000f000   0x00000f00   Zero   RW         1210    .ARM.__AT_0x1000F000  malloc.o



  Load Region LR$$.ARM.__AT_0x68000000 (Base: 0x68000000, Size: 0x00000000, Max: 0x000f0000, ABSOLUTE)

    Execution Region ER$$.ARM.__AT_0x68000000 (Base: 0x68000000, Size: 0x000f0000, Max: 0x000f0000, ABSOLUTE, UNINIT)

    Base Addr    Size         Type   Attr      Idx    E Section Name        Object

    0x68000000   0x000f0000   Zero   RW         1211    .ARM.__AT_0x68000000  malloc.o



  Load Region LR$$.ARM.__AT_0x680F0000 (Base: 0x680f0000, Size: 0x00000000, Max: 0x0000f000, ABSOLUTE)

    Execution Region ER$$.ARM.__AT_0x680F0000 (Base: 0x680f0000, Size: 0x0000f000, Max: 0x0000f000, ABSOLUTE, UNINIT)

    Base Addr    Size         Type   Attr      Idx    E Section Name        Object

    0x680f0000   0x0000f000   Zero   RW         1212    .ARM.__AT_0x680F0000  malloc.o


==============================================================================

Image component sizes


      Code (inc. data)   RO Data    RW Data    ZI Data      Debug   Object Name

      1196        124          0          2         17       6186   audioplay.o
       240         16          0          4          0       2499   delay.o
       518         14          0          2          0       6048   diskio.o
       334         22        180         20         80       3100   exfuns.o
      7524         70         58          2         12      42445   ff.o
        68          4          0          0         33       2109   fontupd.o
       660         54        110          4          0       4266   i2s.o
     17776        212       6080          4         14      23411   ili93xx.o
       244         28          0          1          0       1218   key.o
        64         16          0          0          0        503   led.o
       504         60         36         36    1229440       6526   malloc.o
       208         16        960          0          0       1979   mycc936.o
       420         72          0          0          0       2857   myiic.o
      7180        344          0         16        632      34295   sdio_sdcard.o
       268         22          0          0          0       1685   spi.o
        68         24        392          0       1024        880   startup_stm32f40_41xxx.o
       842         44          0          0          0       6019   sys.o
       480        150          0          0          0     234127   test.o
       618         14          0          0          0       3383   text.o
       418         34          0          6        200       4356   usart.o
      3170       1350         40         28          0       7938   usmart.o
         0          0        464        348          0       1556   usmart_config.o
      1400         20          0          0          0       8989   usmart_str.o
       800         78          0          2       4096       7129   w25qxx.o
      1442        244          0          2         32       4941   wavplay.o
      1022         22          0        116          0      11943   wm8978.o

    ----------------------------------------------------------------------
     47506       3054       8354        596    1235612     430388   Object Totals
         0          0         32          0          0          0   (incl. Generated)
        42          0          2          3         32          0   (incl. Padding)

    ----------------------------------------------------------------------

      Code (inc. data)   RO Data    RW Data    ZI Data      Debug   Library Member Name

        90          0          0          0          0          0   __dczerorl2.o
         8          0          0          0          0         68   __main.o
       392          4         17          0          0         92   __printf_flags_ss_wp.o
        14          0          0          0          0         68   __printf_wp.o
         0          0          0          0          0          0   __rtentry.o
        12          0          0          0          0          0   __rtentry2.o
         6          0          0          0          0          0   __rtentry4.o
        52          8          0          0          0          0   __scatter.o
        28          0          0          0          0          0   __scatter_zi.o
         6          0          0          0          0          0   _printf_c.o
        44          0          0          0          0        108   _printf_char.o
        48          6          0          0          0         96   _printf_char_common.o
        36          4          0          0          0         80   _printf_char_file.o
         6          0          0          0          0          0   _printf_d.o
       120         16          0          0          0         92   _printf_dec.o
        88          4         40          0          0         88   _printf_hex_int.o
       178          0          0          0          0         88   _printf_intcommon.o
        78          0          0          0          0        108   _printf_pad.o
         0          0          0          0          0          0   _printf_percent.o
         4          0          0          0          0          0   _printf_percent_end.o
         6          0          0          0          0          0   _printf_s.o
        82          0          0          0          0         80   _printf_str.o
         6          0          0          0          0          0   _printf_u.o
         6          0          0          0          0          0   _printf_x.o
        12          0          0          0          0         72   exit.o
         8          0          0          0          0         68   ferror.o
         6          0          0          0          0        152   heapauxi.o
         2          0          0          0          0          0   libinit.o
         6          0          0          0          0          0   libinit2.o
         2          0          0          0          0          0   libshutdown.o
         2          0          0          0          0          0   libshutdown2.o
         8          4          0          0         96         68   libspace.o
        72          0          0          0          0         76   llsdiv.o
       238          0          0          0          0        100   lludivv7m.o
        24          4          0          0          0         84   noretval__2printf.o
       138          0          0          0          0         68   rt_memcpy_v6.o
       100          0          0          0          0         80   rt_memcpy_w.o
         2          0          0          0          0          0   rtexit.o
        10          0          0          0          0          0   rtexit2.o
        24          0          0          0          0         68   strcat.o
       128          0          0          0          0         68   strcmpv7m.o
        72          0          0          0          0         80   strcpy.o
        74          0          0          0          0         80   sys_stackheap_outer.o
         2          0          0          0          0         68   use_no_semi.o
         2          0          0          0          0         68   use_no_semi_2.o
        90          4          0          0          0        140   dfixu.o
        38          0          0          0          0        116   dflt_clz.o
       340         12          0          0          0        152   dmul.o
       156          4          0          0          0        140   dnaninf.o
        12          0          0          0          0        116   dretinf.o
        10          0          0          0          0        116   fpinit.o
         0          0          0          0          0          0   usenofp.o

    ----------------------------------------------------------------------
      2896         70         60          0         96       2948   Library Totals
         8          0          3          0          0          0   (incl. Padding)

    ----------------------------------------------------------------------

      Code (inc. data)   RO Data    RW Data    ZI Data      Debug   Library Name

      2242         50         57          0         96       2168   c_w.l
       646         20          0          0          0        780   fz_wm.l

    ----------------------------------------------------------------------
      2896         70         60          0         96       2948   Library Totals

    ----------------------------------------------------------------------

==============================================================================


      Code (inc. data)   RO Data    RW Data    ZI Data      Debug   

     50402       3124       8414        596    1235708     411592   Grand Totals
     50402       3124       8414        228    1235708     411592   ELF Image Totals (compressed)
     50402       3124       8414        228          0          0   ROM Totals

==============================================================================

    Total RO  Size (Code + RO Data)                58816 (  57.44kB)
    Total RW  Size (RW Data + ZI Data)           1236304 (1207.33kB)
    Total ROM Size (Code + RO Data + RW Data)      59044 (  57.66kB)

==============================================================================

